L251 LINKER/LOCATER V4.55a                                                              08/25/2018  14:15:50  PAGE 1


L251 LINKER/LOCATER V4.55a, INVOKED BY:
D:\KEIL\C251\BIN\L251.EXE START251.obj, main.obj, AD.obj, Flash.obj, Uart.obj, RTC.obj, HT1621.obj, Calculate.obj, LCD.o
>> bj TO IR CASE CLASSES (EDATA (0X0-0XFFF), HDATA (0X0-0XFFF))


CPU MODE:     251 SOURCE MODE
INTR FRAME:   4 BYTES SAVED ON INTERRUPT
MEMORY MODEL: XSMALL


INPUT MODULES INCLUDED:
  START251.obj (?C_START)
         COMMENT TYPE 0: A251 V4.59
  main.obj (main)
         COMMENT TYPE 0: C251 V5.04b
  AD.obj (AD)
         COMMENT TYPE 0: C251 V5.04b
  Flash.obj (Flash)
         COMMENT TYPE 0: C251 V5.04b
  Uart.obj (Uart)
         COMMENT TYPE 0: C251 V5.04b
  RTC.obj (RTC)
         COMMENT TYPE 0: C251 V5.04b
  HT1621.obj (HT1621)
         COMMENT TYPE 0: C251 V5.04b
  Calculate.obj (Calculate)
         COMMENT TYPE 0: C251 V5.04b
  LCD.obj (LCD)
         COMMENT TYPE 0: C251 V5.04b
  D:\KEIL\C251\LIB\C2SXS.LIB (?C?INITEDATA)
         COMMENT TYPE 0: A251 V4.56
  D:\KEIL\C251\LIB\C2SXS.LIB (?C?SIDIV)
         COMMENT TYPE 0: A251 V4.56
  D:\KEIL\C251\LIB\C2SXS.LIB (?C?LIMUL)
         COMMENT TYPE 0: A251 V4.56
  D:\KEIL\C251\LIB\C2SXS.LIB (?C?ULDIV)
         COMMENT TYPE 0: A251 V4.56
  D:\KEIL\C251\LIB\C2SXS.LIB (STRCPY?_)
         COMMENT TYPE 0: A251 V4.56
  D:\KEIL\C251\LIB\C2SXS.LIB (?C?INITEDATA_END)
         COMMENT TYPE 0: A251 V4.56


ACTIVE MEMORY CLASSES OF MODULE:  IR (?C_START)

BASE        START       END         USED      MEMORY CLASS
==========================================================
000000H     000000H     000FFFH     0004F0H   EDATA
000000H     000000H     000FFFH               HDATA
FF0000H     FF0000H     FFFFFFH     00362FH   CODE
000000H     FF0000H     FFFFFFH     000344H   HCONST
000000H     000000H     00007FH     000008H   DATA


MEMORY MAP OF MODULE:  IR (?C_START)


START     STOP      LENGTH    ALIGN  RELOC    MEMORY CLASS   SEGMENT NAME
=========================================================================
000000H   000007H   000008H   ---    AT..     DATA           "REG BANK 0"
000008H   000255H   00024EH   BYTE   UNIT     EDATA          ?ED?FLASH
000256H   0003EEH   000199H   BYTE   UNIT     EDATA          ?ED?UART
0003EFH   0003F2H   000004H   BYTE   UNIT     EDATA          ?ED?AD
0003F3H   0003F6H   000004H   BYTE   UNIT     EDATA          _EDATA_GROUP_
0003F7H   0003F7H   000001H   BYTE   UNIT     EDATA          ?ED?RTC
0003F8H   0004F7H   000100H   BYTE   UNIT     EDATA          ?STACK
L251 LINKER/LOCATER V4.55a                                                            08/25/2018  14:15:50  PAGE 2


0004F8H   FEFFFFH   FEFB08H   ---    ---      **GAP**
FF0000H   FF0002H   000003H   ---    OFFS..   CODE           ?CO?START251?4
FF0003H   FF0018H   000016H   BYTE   INSEG    CODE           ?PR?SET_DCO?UART
FF0019H   FF0022H   00000AH   ---    ---      **GAP**
FF0023H   FF0025H   000003H   ---    OFFS..   CODE           ?PR?IV?4
FF0026H   FF0039H   000014H   BYTE   INSEG    CODE           ?PR?FLASH_READ_WRITE?FLASH
FF003AH   FF0042H   000009H   ---    ---      **GAP**
FF0043H   FF0045H   000003H   ---    OFFS..   CODE           ?PR?IV?8
FF0046H   FF0067H   000022H   BYTE   INSEG    CODE           ?PR?READ_SEGC?FLASH
FF0068H   FF006AH   000003H   ---    ---      **GAP**
FF006BH   FF006DH   000003H   ---    OFFS..   CODE           ?PR?IV?13
FF006EH   FF0072H   000005H   ---    ---      **GAP**
FF0073H   FF0075H   000003H   ---    OFFS..   CODE           ?PR?IV?14
FF0076H   FF0079H   000004H   ---    ---      **GAP**
FF007AH   FF007FH   000006H   BYTE   OFFS..   CODE           ?CO?OF_7A_?1?MAIN
FF0080H   FF0085H   000006H   ---    ---      **GAP**
FF0086H   FF008DH   000008H   BYTE   OFFS..   CODE           ?CO?OF_86_?3?MAIN
FF008EH   FF008FH   000002H   ---    ---      **GAP**
FF0090H   FF009FH   000010H   BYTE   OFFS..   CODE           ?CO?OF_90_?2?MAIN
FF00A0H   FF089DH   0007FEH   BYTE   INSEG    CODE           ?PR?RX_JUDGE?UART
FF089EH   FF0F40H   0006A3H   BYTE   INSEG    CODE           ?PR?DATA_DEAL?UART
FF0F41H   FF1281H   000341H   BYTE   INSEG    CODE           ?PR?METER_TIME?MAIN
FF1282H   FF1562H   0002E1H   BYTE   INSEG    CODE           ?PR?SHOW?LCD
FF1563H   FF17EBH   000289H   BYTE   INSEG    CODE           ?PR?NB_NSOST?UART
FF17ECH   FF1A01H   000216H   BYTE   INSEG    CODE           ?PR?NB_NUESTATS?UART
FF1A02H   FF1BAFH   0001AEH   BYTE   INSEG    CODE           ?PR?DATA_UP?UART
FF1BB0H   FF1D58H   0001A9H   BYTE   INSEG    CODE           ?PR?FCTROL?CALCULATE
FF1D59H   FF1EE9H   000191H   BYTE   INSEG    CODE           ?PR?NB_RX?UART
FF1EEAH   FF2061H   000178H   BYTE   INSEG    CODE           ?PR?NB_SEND?UART
FF2062H   FF219DH   00013CH   BYTE   INSEG    CODE           ?PR?NB_TIMING_SEND?UART
FF219EH   FF22D8H   00013BH   BYTE   INSEG    CODE           ?PR?NB_NMGS?UART
FF22D9H   FF23CDH   0000F5H   BYTE   INSEG    CODE           ?PR?INTERRUPT_UART?UART
FF23CEH   FF24BFH   0000F2H   BYTE   INSEG    CODE           ?PR?RNG_TIME?CALCULATE
FF24C0H   FF25AAH   0000EBH   BYTE   INSEG    CODE           ?PR?LCD_DISTAG?LCD
FF25ABH   FF2684H   0000DAH   BYTE   INSEG    CODE           ?PR?NB_CSQ?UART
FF2685H   FF2755H   0000D1H   BYTE   INSEG    CODE           ?PR?NB_CGATT?UART
FF2756H   FF2821H   0000CCH   BYTE   INSEG    CODE           ?PR?NB_CFUN?UART
FF2822H   FF28DDH   0000BCH   BYTE   INSEG    CODE           ?PR?NB_CEREG?UART
FF28DEH   FF2994H   0000B7H   BYTE   INSEG    CODE           ?PR?LCD_DISNUM?LCD
FF2995H   FF2A46H   0000B2H   BYTE   INSEG    CODE           ?PR?INTERRUPT_RTC?RTC
FF2A47H   FF2AF4H   0000AEH   BYTE   INSEG    CODE           ?PR?NB_CIMI?UART
FF2AF5H   FF2B95H   0000A1H   BYTE   INSEG    CODE           ?PR?MAIN?MAIN
FF2B96H   FF2C29H   000094H   BYTE   INSEG    CODE           ?PR?INTERRUPT_PORT?HT1621
FF2C2AH   FF2CB7H   00008EH   BYTE   UNIT     CODE           ?C?LIB_CODE
FF2CB8H   FF2D3AH   000083H   BYTE   INSEG    CODE           ?PR?SHOWCLOSE?LCD
FF2D3BH   FF2DB2H   000078H   BYTE   INSEG    CODE           ?PR?NB_OPEN?UART
FF2DB3H   FF2E2AH   000078H   BYTE   INSEG    CODE           ?PR?SHOWOPEN?LCD
FF2E2BH   FF2EA0H   000076H   BYTE   INSEG    CODE           ?PR?NB_NCSEARFCN?UART
FF2EA1H   FF2F16H   000076H   BYTE   INSEG    CODE           ?PR?NB_CMEE?UART
FF2F17H   FF2F8CH   000076H   BYTE   INSEG    CODE           ?PR?NB_IOT_123?UART
FF2F8DH   FF3002H   000076H   BYTE   INSEG    CODE           ?PR?NB_IOT_124?UART
FF3003H   FF3078H   000076H   BYTE   INSEG    CODE           ?PR?NB_IOT_IP?UART
FF3079H   FF30E4H   00006CH   BYTE   INSEG    CODE           ?PR?NB_CLOSE?UART
FF30E5H   FF3149H   000065H   BYTE   INSEG    CODE           ?PR?ADC_READ?AD
FF314AH   FF31ABH   000062H   BYTE   INSEG    CODE           ?PR?RTCINIT?RTC
FF31ACH   FF320BH   000060H   BYTE   INSEG    CODE           ?PR?INTERRUPT_ADC?AD
FF320CH   FF3266H   00005BH   BYTE   INSEG    CODE           ?PR?RX0_READ?UART
FF3267H   FF32BFH   000059H   BYTE   INSEG    CODE           ?PR?PORT_INIT?HT1621
FF32C0H   FF3313H   000054H   BYTE   INSEG    CODE           ?PR?RTCSET?RTC
FF3314H   FF3362H   00004FH   BYTE   INSEG    CODE           ?PR?WRITE_SEGC?FLASH
FF3363H   FF33B0H   00004EH   BYTE   INSEG    CODE           ?PR?USMBCRC16?UART
FF33B1H   FF33F7H   000047H   BYTE   INSEG    CODE           ?PR?LCD_CLEAR?LCD
FF33F8H   FF3439H   000042H   BYTE   INSEG    CODE           ?PR?CALCULATE?CALCULATE
FF343AH   FF344CH   000013H   BYTE   UNIT     CODE           ?C_C51STARTUP
FF344DH   FF3475H   000029H   BYTE   UNIT     CODE           ?C_C51STARTUP?2
L251 LINKER/LOCATER V4.55a                                                            08/25/2018  14:15:50  PAGE 3


FF3476H   FF3478H   000003H   BYTE   UNIT     CODE           ?C_C51STARTUP?3
FF3479H   FF34B7H   00003FH   BYTE   INSEG    CODE           ?PR?UART_INIT?UART
FF34B8H   FF34F5H   00003EH   BYTE   INSEG    CODE           ?PR?LCD_INIT?LCD
FF34F6H   FF3532H   00003DH   BYTE   INSEG    CODE           ?PR?NB_SEND2?UART
FF3533H   FF356EH   00003CH   BYTE   INSEG    CODE           ?PR?STRWU?UART
FF356FH   FF35A1H   000033H   BYTE   INSEG    CODE           ?PR?UART0_INIT?UART
FF35A2H   FF35CDH   00002CH   BYTE   INSEG    CODE           ?PR?INITDATA?CALCULATE
FF35CEH   FF35F6H   000029H   BYTE   INSEG    CODE           ?PR?NB_IOT?UART
FF35F7H   FF360AH   000014H   BYTE   INSEG    CODE           ?PR?CHECK_STR?UART
FF360BH   FF361DH   000013H   BYTE   UNIT     CODE           ?PR?STRCPY?_
FF361EH   FF362DH   000010H   BYTE   INSEG    CODE           ?PR?CLEAR_RX?UART
FF362EH   FF363DH   000010H   BYTE   INSEG    CODE           ?PR?CHECK_CMD?UART
FF363EH   FF364AH   00000DH   BYTE   INSEG    CODE           ?PR?UART0_TX?UART
FF364BH   FF3655H   00000BH   BYTE   INSEG    CODE           ?PR?DELAY?FLASH
FF3656H   FF393EH   0002E9H   BYTE   UNIT     HCONST         ?HC?UART
FF393FH   FF3984H   000046H   BYTE   UNIT     HCONST         ?C_INITEDATA
FF3985H   FF3999H   000015H   BYTE   UNIT     HCONST         ?HC?LCD



OVERLAY MAP OF MODULE:   IR (?C_START)


FUNCTION/MODULE             EDATA_GROUP
--> CALLED FUNCTION/MODULE  START  STOP
=======================================
?C_C51STARTUP               ----- -----

*** NEW ROOT **************

?C_C51STARTUP?3             ----- -----
  +--> main/main

main/main                   ----- -----
  +--> Set_DCO/Uart
  +--> Port_Init/HT1621
  +--> RNG_Time/Calculate
  +--> LCD_Init/LCD
  +--> Read_SegC/Flash
  +--> Write_SegC/Flash
  +--> Flash_Read_Write/Flash
  +--> RTCInit/RTC
  +--> InitData/Calculate
  +--> ADC_Read/AD
  +--> NB_Close/Uart
  +--> LCD_Clear/LCD
  +--> FCtrol/Calculate
  +--> NB_Send2/Uart
  +--> Show/LCD
  +--> Meter_Time/main
  +--> RX0_read/Uart

Set_DCO/Uart                ----- -----

Port_Init/HT1621            ----- -----

RNG_Time/Calculate          ----- -----

LCD_Init/LCD                ----- -----
  +--> LCD_Clear/LCD

LCD_Clear/LCD               ----- -----

Read_SegC/Flash             ----- -----

L251 LINKER/LOCATER V4.55a                                                            08/25/2018  14:15:50  PAGE 4


Write_SegC/Flash            ----- -----

Flash_Read_Write/Flash      ----- -----

RTCInit/RTC                 ----- -----

InitData/Calculate          ----- -----

ADC_Read/AD                 ----- -----
  +--> Delay/Flash

Delay/Flash                 ----- -----

NB_Close/Uart               ----- -----
  +--> Show/LCD

Show/LCD                    ----- -----
  +--> LCD_Clear/LCD
  +--> Lcd_DisTag/LCD
  +--> ?C?ULIDIV/?C?ULDIV
  +--> Lcd_DisNum/LCD

Lcd_DisTag/LCD              ----- -----

?C?ULIDIV/?C?ULDIV          ----- -----

Lcd_DisNum/LCD              ----- -----

FCtrol/Calculate            ----- -----
  +--> Delay/Flash
  +--> LCD_Clear/LCD
  +--> ShowOpen/LCD
  +--> ShowClose/LCD

ShowOpen/LCD                ----- -----

ShowClose/LCD               ----- -----

NB_Send2/Uart               ----- -----
  +--> Uart_Init/Uart
  +--> NB_Open/Uart
  +--> NB_CFUN/Uart
  +--> NB_IoT_IP/Uart
  +--> NB_IoT_123/Uart
  +--> NB_IoT_124/Uart
  +--> NB_Close/Uart

Uart_Init/Uart              ----- -----

NB_Open/Uart                ----- -----
  +--> STRCPY?_/STRCPY?_
  +--> Uart0_TX/Uart
  +--> Delay/Flash
  +--> Check_cmd/Uart
  +--> Clear_RX/Uart

STRCPY?_/STRCPY?_           ----- -----

Uart0_TX/Uart               ----- -----

Check_cmd/Uart              ----- -----
  +--> strwu/Uart

strwu/Uart                  ----- -----

L251 LINKER/LOCATER V4.55a                                                            08/25/2018  14:15:50  PAGE 5


Clear_RX/Uart               ----- -----

NB_CFUN/Uart                ----- -----
  +--> STRCPY?_/STRCPY?_
  +--> Uart0_TX/Uart
  +--> Delay/Flash
  +--> Check_cmd/Uart
  +--> Clear_RX/Uart

NB_IoT_IP/Uart              ----- -----
  +--> STRCPY?_/STRCPY?_
  +--> Uart0_TX/Uart
  +--> Delay/Flash
  +--> Check_cmd/Uart
  +--> Clear_RX/Uart

NB_IoT_123/Uart             ----- -----
  +--> STRCPY?_/STRCPY?_
  +--> Uart0_TX/Uart
  +--> Delay/Flash
  +--> Check_cmd/Uart
  +--> Clear_RX/Uart

NB_IoT_124/Uart             ----- -----
  +--> STRCPY?_/STRCPY?_
  +--> Uart0_TX/Uart
  +--> Check_cmd/Uart
  +--> Clear_RX/Uart

Meter_Time/main             ----- -----
  +--> NB_Timing_Send/Uart
  +--> NB_Send/Uart
  +--> LCD_Clear/LCD
  +--> FCtrol/Calculate
  +--> ADC_Read/AD
  +--> Show/LCD
  +--> Write_SegC/Flash

NB_Timing_Send/Uart         ----- -----
  +--> Uart_Init/Uart
  +--> NB_Open/Uart
  +--> NB_IoT/Uart
  +--> NB_CSQ/Uart
  +--> NB_CGATT/Uart
  +--> NB_CEREG/Uart
  +--> NB_NMGS/Uart
  +--> NB_CIMI/Uart
  +--> NB_NUESTATS/Uart
  +--> Data_deal/Uart
  +--> Data_UP/Uart
  +--> NB_RX/Uart
  +--> NB_CFUN/Uart
  +--> NB_NCSEARFCN/Uart
  +--> NB_Close/Uart

NB_IoT/Uart                 ----- -----
  +--> NB_IoT_123/Uart
  +--> NB_CMEE/Uart

NB_CMEE/Uart                ----- -----
  +--> STRCPY?_/STRCPY?_
  +--> Uart0_TX/Uart
  +--> Delay/Flash
  +--> Check_cmd/Uart
  +--> Clear_RX/Uart
L251 LINKER/LOCATER V4.55a                                                            08/25/2018  14:15:50  PAGE 6



NB_CSQ/Uart                 ----- -----
  +--> STRCPY?_/STRCPY?_
  +--> Uart0_TX/Uart
  +--> Check_cmd/Uart
  +--> Check_Str/Uart
  +--> Clear_RX/Uart

Check_Str/Uart              ----- -----

NB_CGATT/Uart               ----- -----
  +--> STRCPY?_/STRCPY?_
  +--> Uart0_TX/Uart
  +--> Check_cmd/Uart
  +--> Check_Str/Uart
  +--> Clear_RX/Uart

NB_CEREG/Uart               ----- -----
  +--> STRCPY?_/STRCPY?_
  +--> Uart0_TX/Uart
  +--> Check_cmd/Uart
  +--> Check_Str/Uart
  +--> Clear_RX/Uart

NB_NMGS/Uart                ----- -----
  +--> STRCPY?_/STRCPY?_
  +--> Uart0_TX/Uart
  +--> Check_cmd/Uart
  +--> Clear_RX/Uart
  +--> Delay/Flash

NB_CIMI/Uart                ----- -----
  +--> STRCPY?_/STRCPY?_
  +--> Uart0_TX/Uart
  +--> Delay/Flash
  +--> Check_cmd/Uart
  +--> Clear_RX/Uart

NB_NUESTATS/Uart            03F3H 03F3H
  +--> STRCPY?_/STRCPY?_
  +--> Uart0_TX/Uart
  +--> Delay/Flash
  +--> Check_cmd/Uart
  +--> Clear_RX/Uart

Data_deal/Uart              ----- -----
  +--> usMBCRC16/Uart
  +--> ADC_Read/AD
  +--> NB_NSOST/Uart

usMBCRC16/Uart              ----- -----

NB_NSOST/Uart               03F3H 03F6H
  +--> STRCPY?_/STRCPY?_
  +--> Uart0_TX/Uart
  +--> Check_cmd/Uart
  +--> Clear_RX/Uart

Data_UP/Uart                ----- -----
  +--> Data_deal/Uart

NB_RX/Uart                  ----- -----
  +--> Check_Str/Uart
  +--> RX_Judge/Uart
  +--> Clear_RX/Uart
L251 LINKER/LOCATER V4.55a                                                            08/25/2018  14:15:50  PAGE 7



RX_Judge/Uart               ----- -----
  +--> usMBCRC16/Uart
  +--> Data_deal/Uart
  +--> RTCSet/RTC
  +--> FCtrol/Calculate
  +--> Write_SegC/Flash
  +--> RNG_Time/Calculate
  +--> Clear_RX/Uart
  +--> InitData/Calculate

RTCSet/RTC                  ----- -----

NB_NCSEARFCN/Uart           ----- -----
  +--> STRCPY?_/STRCPY?_
  +--> Uart0_TX/Uart
  +--> Delay/Flash
  +--> Check_cmd/Uart
  +--> Clear_RX/Uart

NB_Send/Uart                ----- -----
  +--> Uart_Init/Uart
  +--> NB_Open/Uart
  +--> NB_IoT/Uart
  +--> NB_CSQ/Uart
  +--> NB_CGATT/Uart
  +--> NB_CEREG/Uart
  +--> NB_NMGS/Uart
  +--> NB_CIMI/Uart
  +--> NB_NUESTATS/Uart
  +--> Data_deal/Uart
  +--> NB_RX/Uart
  +--> NB_CFUN/Uart
  +--> NB_NCSEARFCN/Uart
  +--> NB_Close/Uart

RX0_read/Uart               ----- -----
  +--> Uart0_Init/Uart
  +--> RX_Judge/Uart
  +--> NB_Close/Uart

Uart0_Init/Uart             ----- -----

*** NEW ROOT **************

INTERRUPT_ADC/AD            ----- -----

*** NEW ROOT **************

INTERRUPT_UART/Uart         ----- -----

*** NEW ROOT **************

INTERRUPT_RTC/RTC           ----- -----

*** NEW ROOT **************

INTERRUPT_PORT/HT1621       ----- -----
  +--> Show/LCD
  +--> calculate/Calculate

calculate/Calculate         ----- -----
  +--> Show/LCD

*** NEW ROOT **************
L251 LINKER/LOCATER V4.55a                                                            08/25/2018  14:15:50  PAGE 8



?C_C51STARTUP?2             ----- -----



PUBLIC SYMBOLS OF MODULE:  IR (?C_START)


      VALUE       CLASS    TYPE      PUBLIC SYMBOL NAME
      =================================================
      000000FFH   NUMBER   ---       ?C?CODESEG
      00FF344DH   CODE     ---       ?C?INITEDATA
      00FF3983H   HCONST   WORD      ?C?INITEDATA_END
      00FF2C5CH   CODE     ---       ?C?LIMUL
      00FF2C2AH   CODE     ---       ?C?SIDIV
      00FF0000H   CODE     ---       ?C?STARTUP
      00FF2C67H   CODE     NEAR LAB  ?C?ULDIV
      00FF2C65H   CODE     NEAR LAB  ?C?ULIDIV
      00000001H   NUMBER   ---       ?C?XDATASEG
      00FF0000H   CODE     ---       ?C_STARTUP
*SFR* 000000D0H.6 DATA     BIT       AC
*SFR* 000000E0H   DATA     BYTE      ACC
*SFR* 0000009BH   DATA     BYTE      ADC1
*SFR* 0000009CH   DATA     BYTE      ADC2
*SFR* 0000009DH   DATA     BYTE      ADC3
      00000174H   EDATA    BYTE      adc_flag
      00FF30E5H   CODE     ---       ADC_Read
      000003EFH   EDATA    DWORD     adc_result
*SFR* 0000009EH   DATA     BYTE      ADCH
*SFR* 0000009FH   DATA     BYTE      ADCL
*SFR* 000000E8H   DATA     BYTE      AIE
*SFR* 000000C0H   DATA     BYTE      AIF
*SFR* 000000F7H   DATA     BYTE      AIPH
*SFR* 000000F8H   DATA     BYTE      AIPL
      00FF373FH   HCONST   ---       aucCRCHi
      00FF383FH   HCONST   ---       aucCRCLo
*SFR* 000000F0H   DATA     BYTE      B
*SFR* 0000009AH   DATA     BYTE      BGRC
*SFR* 000000A7H   DATA     BYTE      BOOT_INFO
*SFR* 000000A3H   DATA     BYTE      BUZZ_CNT
*SFR* 000000A2H   DATA     BYTE      BUZZ_CTL
      0000017DH   EDATA    ---       C_DATA
      00FF33F8H   CODE     ---       calculate
*SFR* 000000FAH   DATA     BYTE      CCAP0H
*SFR* 000000EAH   DATA     BYTE      CCAP0L
*SFR* 000000FBH   DATA     BYTE      CCAP1H
*SFR* 000000EBH   DATA     BYTE      CCAP1L
*SFR* 000000FCH   DATA     BYTE      CCAP2H
*SFR* 000000ECH   DATA     BYTE      CCAP2L
*SFR* 000000FDH   DATA     BYTE      CCAP3H
*SFR* 000000EDH   DATA     BYTE      CCAP3L
*SFR* 000000FEH   DATA     BYTE      CCAP4H
*SFR* 000000EEH   DATA     BYTE      CCAP4L
*SFR* 000000DAH   DATA     BYTE      CCAPM0
*SFR* 000000DBH   DATA     BYTE      CCAPM1
*SFR* 000000DCH   DATA     BYTE      CCAPM2
*SFR* 000000DDH   DATA     BYTE      CCAPM3
*SFR* 000000DEH   DATA     BYTE      CCAPM4
*SFR* 000000DFH   DATA     BYTE      CCAPO
*SFR* 000000D8H   DATA     BIT       CCF0
*SFR* 000000D8H.1 DATA     BIT       CCF1
*SFR* 000000D8H.2 DATA     BIT       CCF2
*SFR* 000000D8H.3 DATA     BIT       CCF3
*SFR* 000000D8H.4 DATA     BIT       CCF4
*SFR* 0000008EH   DATA     BYTE      CCMCON
L251 LINKER/LOCATER V4.55a                                                            08/25/2018  14:15:50  PAGE 9


*SFR* 0000008FH   DATA     BYTE      CCMVAL
*SFR* 000000D8H   DATA     BYTE      CCON
      00000176H   EDATA    BYTE      CDMA_time
      000003F7H   EDATA    BYTE      CDMA_Wait
*SFR* 000000D8H.7 DATA     BIT       CF
*SFR* 000000F9H   DATA     BYTE      CH
      00FF362EH   CODE     ---       Check_cmd
      00FF35F7H   CODE     ---       Check_Str
*SFR* 000000E9H   DATA     BYTE      CL
      00FF361EH   CODE     ---       Clear_RX
*SFR* 00000092H   DATA     BYTE      CLKC
*SFR* 00000093H   DATA     BYTE      CLKC1
*SFR* 00000094H   DATA     BYTE      CLKC2
*SFR* 000000D9H   DATA     BYTE      CMOD
      00000220H   EDATA    DWORD     consumed_water
      0000017CH   EDATA    BYTE      count_time
*SFR* 000000D8H.6 DATA     BIT       CR
*SFR* 000000D0H.7 DATA     BIT       CY
      00FF089EH   CODE     ---       Data_deal
      00FF1A02H   CODE     ---       Data_UP
      00000172H   EDATA    BYTE      date
      00FF364BH   CODE     ---       Delay
      00000179H   EDATA    BYTE      doubletime
*SFR* 00000083H   DATA     BYTE      DPH
*SFR* 00000082H   DATA     BYTE      DPL
*SFR* 00000084H   DATA     BYTE      DPXL
*SFR* 000000A8H.7 DATA     BIT       EA
*SFR* 000000A8H.6 DATA     BIT       EC
*SFR* 000000A8H.4 DATA     BIT       ES
*SFR* 000000A8H.1 DATA     BIT       ET0
*SFR* 000000A8H.3 DATA     BIT       ET1
*SFR* 000000A8H.5 DATA     BIT       ET2
*SFR* 000000A8H   DATA     BIT       EX0
*SFR* 000000A8H.2 DATA     BIT       EX1
*SFR* 000000D0H.5 DATA     BIT       F0
      00FF1BB0H   CODE     ---       FCtrol
      0000021FH   EDATA    BYTE      FDcycflag
      0000017BH   EDATA    BYTE      FDtime
*SFR* 00000098H.7 DATA     BIT       FE
      0000021EH   EDATA    BYTE      flagtype
*SFR* 00000091H   DATA     BYTE      FLASH_CTL
*SFR* 000000B1H   DATA     BYTE      FLASH_PL
      00FF0026H   CODE     ---       Flash_Read_Write
      00FF0086H   CODE     ---       flashlockbit_reserve
      00000178H   EDATA    BYTE      FMflag
      00000173H   EDATA    BYTE      FmForceFlag
      0000017AH   EDATA    BYTE      FmOrder
      00000225H   EDATA    ---       g_write_value
*SFR* 000000D2H   DATA     BYTE      I2C_RUN
*SFR* 000000D3H   DATA     BYTE      I2C_TM
*SFR* 000000D6H   DATA     BYTE      I2CADR
*SFR* 000000D4H   DATA     BYTE      I2CCON
*SFR* 000000D5H   DATA     BYTE      I2CDAT
*SFR* 000000D7H   DATA     BYTE      I2CSTA
*SFR* 000000A8H   DATA     BYTE      IE0
*SFR* 00000088H.1 DATA     BIT       IE0_
*SFR* 00000088H.3 DATA     BIT       IE1_
      00FF35A2H   CODE     ---       InitData
      00FF31ACH   CODE     ---       INTERRUPT_ADC
      00FF2B96H   CODE     ---       INTERRUPT_PORT
      00FF2995H   CODE     ---       INTERRUPT_RTC
      00FF22D9H   CODE     ---       INTERRUPT_UART
*SFR* 000000B7H   DATA     BYTE      IPH0
*SFR* 000000B8H   DATA     BYTE      IPL0
*SFR* 00000088H   DATA     BIT       IT0
L251 LINKER/LOCATER V4.55a                                                            08/25/2018  14:15:50  PAGE 10


*SFR* 00000088H.2 DATA     BIT       IT1
      000003EBH   EDATA    WORD      j
      00000218H   EDATA    BYTE      key_time
      00FF33B1H   CODE     ---       LCD_Clear
      00FF28DEH   CODE     ---       Lcd_DisNum
      00FF24C0H   CODE     ---       Lcd_DisTag
      00FF34B8H   CODE     ---       LCD_Init
      00FF3985H   HCONST   ---       LCD_Tab
*SFR* 00000085H   DATA     BYTE      LOCKSFR
      00000177H   EDATA    BYTE      lowVoltage
      00000175H   EDATA    BYTE      lowVoltageFlag
*SFR* 00000095H   DATA     BYTE      LPM
*SFR* 000000B6H   DATA     BYTE      LVDC1
*SFR* 000000BFH   DATA     BYTE      LVDC2
      00FF2AF5H   CODE     ---       MAIN
      00000213H   EDATA    WORD      mem_date
      0000000AH   EDATA    ---       meter_data
      00FF0F41H   CODE     ---       Meter_Time
*SFR* 00000097H   DATA     BYTE      MMCON
*SFR* 000000A1H   DATA     BYTE      MPAGE
      00FF2822H   CODE     ---       NB_CEREG
      00FF2756H   CODE     ---       NB_CFUN
      00FF2685H   CODE     ---       NB_CGATT
      00FF2A47H   CODE     ---       NB_CIMI
      00FF3079H   CODE     ---       NB_Close
      00FF2EA1H   CODE     ---       NB_CMEE
      00FF25ABH   CODE     ---       NB_CSQ
      00FF35CEH   CODE     ---       NB_IoT
      00FF2F17H   CODE     ---       NB_IoT_123
      00FF2F8DH   CODE     ---       NB_IoT_124
      00FF3003H   CODE     ---       NB_IoT_IP
      00FF2E2BH   CODE     ---       NB_NCSEARFCN
      00FF219EH   CODE     ---       NB_NMGS
      00FF1563H   CODE     ---       NB_NSOST
      00FF17ECH   CODE     ---       NB_NUESTATS
      00FF2D3BH   CODE     ---       NB_Open
      00FF1D59H   CODE     ---       NB_RX
      00FF1EEAH   CODE     ---       NB_Send
      00FF34F6H   CODE     ---       NB_Send2
      00FF2062H   CODE     ---       NB_Timing_Send
      00000224H   EDATA    BYTE      Nodoubletime
      00000008H   EDATA    BYTE      nolowVoltage
*SFR* 000000D0H.2 DATA     BIT       OV
*SFR* 000000D0H   DATA     BIT       P
*SFR* 00000080H   DATA     BYTE      P0
*SFR* 000000ACH   DATA     BYTE      P0_DIR
*SFR* 00000090H   DATA     BYTE      P1
*SFR* 000000ADH   DATA     BYTE      P1_DIR
*SFR* 000000A0H   DATA     BYTE      P2
*SFR* 000000AEH   DATA     BYTE      P2_DIR
*SFR* 000000B0H   DATA     BYTE      P3
*SFR* 000000AFH   DATA     BYTE      P3_DIR
*SFR* 000000E2H   DATA     BYTE      P4
*SFR* 000000F2H   DATA     BYTE      P4_DIR
*SFR* 000000E3H   DATA     BYTE      P5
*SFR* 000000F3H   DATA     BYTE      P5_DIR
*SFR* 000000E4H   DATA     BYTE      P6
*SFR* 000000F4H   DATA     BYTE      P6_DIR
*SFR* 000000E5H   DATA     BYTE      P7
*SFR* 000000F5H   DATA     BYTE      P7_DIR
*SFR* 000000E6H   DATA     BYTE      P8
*SFR* 000000F6H   DATA     BYTE      P8_DIR
      00FF0090H   CODE     ---       password_reserve
*SFR* 00000087H   DATA     BYTE      PCON
*SFR* 000000B3H   DATA     BYTE      PERI_CLK0
L251 LINKER/LOCATER V4.55a                                                            08/25/2018  14:15:50  PAGE 11


*SFR* 000000B4H   DATA     BYTE      PERI_CLK1
*SFR* 000000B5H   DATA     BYTE      PERI_CLK2
      00FF3267H   CODE     ---       Port_Init
*SFR* 000000D0H   DATA     BYTE      PSW
*SFR* 000000D1H   DATA     BYTE      PSW1
      00000215H   EDATA    BYTE      pul_flag
*SFR* 00000098H.2 DATA     BIT       RB8
      00000321H   EDATA    BYTE      Read_Flag
      00FF0046H   CODE     ---       Read_SegC
*SFR* 00000098H.4 DATA     BIT       REN
      00FF007AH   CODE     ---       reserved_trap
*SFR* 000000A4H   DATA     BYTE      RESET_FLAG
      00000216H   EDATA    BYTE      returntime
*SFR* 00000098H   DATA     BIT       RI
      00FF23CEH   CODE     ---       RNG_Time
*SFR* 000000D0H.3 DATA     BIT       RS0
*SFR* 000000D0H.4 DATA     BIT       RS1
      00FF314AH   CODE     ---       RTCInit
      00FF32C0H   CODE     ---       RTCSet
      00000322H   EDATA    ---       RX0
      00000217H   EDATA    BYTE      RX0_flag
      00FF320CH   CODE     ---       RX0_read
      00000320H   EDATA    BYTE      RX1_Flag
      00FF00A0H   CODE     ---       RX_Judge
*SFR* 000000A9H   DATA     BYTE      SADDR
*SFR* 000000BAH   DATA     BYTE      SADDR1
*SFR* 000000B9H   DATA     BYTE      SADEN
*SFR* 000000BBH   DATA     BYTE      SADEN1
*SFR* 00000099H   DATA     BYTE      SBUF
*SFR* 000000ABH   DATA     BYTE      SBUF1
*SFR* 00000098H   DATA     BYTE      SCON
*SFR* 000000AAH   DATA     BYTE      SCON1
      00FF0003H   CODE     ---       Set_DCO
      00FF1282H   CODE     ---       Show
      00FF2CB8H   CODE     ---       ShowClose
      0000021AH   EDATA    ---       showdata
      00000219H   EDATA    BYTE      showIP
      00FF2DB3H   CODE     ---       ShowOpen
*SFR* 00000098H.7 DATA     BIT       SM0
*SFR* 00000098H.6 DATA     BIT       SM1
*SFR* 00000098H.5 DATA     BIT       SM2
*SFR* 00000081H   DATA     BYTE      SP
*SFR* 000000BEH   DATA     BYTE      SPH
      00FF360BH   CODE     NEAR LAB  strcpy?_
      00FF3533H   CODE     ---       strwu
*SFR* 00000098H.3 DATA     BIT       TB8
*SFR* 00000088H   DATA     BYTE      TCON
*SFR* 000000C3H   DATA     BYTE      TCON2
*SFR* 0000008CH   DATA     BYTE      TH0
*SFR* 0000008DH   DATA     BYTE      TH1
*SFR* 000000C5H   DATA     BYTE      TH2
*SFR* 000000C7H   DATA     BYTE      TH3
*SFR* 00000098H.1 DATA     BIT       TI
      00000009H   EDATA    BYTE      time_Flag
*SFR* 0000008AH   DATA     BYTE      TL0
*SFR* 0000008BH   DATA     BYTE      TL1
*SFR* 000000C4H   DATA     BYTE      TL2
*SFR* 000000C6H   DATA     BYTE      TL3
*SFR* 00000089H   DATA     BYTE      TMOD
*SFR* 00000088H.4 DATA     BIT       TR0
*SFR* 00000088H.6 DATA     BIT       TR1
      00000258H   EDATA    ---       TX
      00000256H   EDATA    WORD      TX_Flag
*SFR* 000000C9H   DATA     BYTE      U0_TM
*SFR* 000000C8H   DATA     BYTE      U0_TMR
L251 LINKER/LOCATER V4.55a                                                            08/25/2018  14:15:50  PAGE 12


*SFR* 000000CBH   DATA     BYTE      U1_TM
*SFR* 000000CAH   DATA     BYTE      U1_TMR
      00FF356FH   CODE     ---       Uart0_Init
      00FF363EH   CODE     ---       Uart0_TX
      00FF3479H   CODE     ---       Uart_Init
      000003EAH   EDATA    BYTE      ucCRCHi
      000003EDH   EDATA    BYTE      ucCRCLo
      00FF3363H   CODE     ---       usMBCRC16
*SFR* 000000BCH   DATA     BYTE      VC1
*SFR* 000000BDH   DATA     BYTE      VC2
*SFR* 000000CCH   DATA     BYTE      VC3
*SFR* 000000A5H   DATA     BYTE      WDTCON
*SFR* 000000A6H   DATA     BYTE      WDTRST
      00FF3314H   CODE     ---       Write_SegC
*SFR* 000000CFH   DATA     BYTE      X32K_CTL
      000003EEH   EDATA    BYTE      y
      00000255H   EDATA    BYTE      z



SYMBOL TABLE OF MODULE:  IR (?C_START)

      VALUE       REP       CLASS    TYPE      SYMBOL NAME
      ====================================================
      ---         MODULE    ---      ---       ?C_START
      00FF0000H   PUBLIC    CODE     ---       ?C?STARTUP
      00FF0000H   PUBLIC    CODE     ---       ?C_STARTUP
      000000D0H.6 SFRSYM    DATA     BIT       AC
      000000E0H   SFRSYM    DATA     BYTE      ACC
      0000009BH   SFRSYM    DATA     BYTE      ADC1
      0000009CH   SFRSYM    DATA     BYTE      ADC2
      0000009DH   SFRSYM    DATA     BYTE      ADC3
      0000009EH   SFRSYM    DATA     BYTE      ADCH
      0000009FH   SFRSYM    DATA     BYTE      ADCL
      000000E8H   SFRSYM    DATA     BYTE      AIE
      000000C0H   SFRSYM    DATA     BYTE      AIF
      000000F7H   SFRSYM    DATA     BYTE      AIPH
      000000F8H   SFRSYM    DATA     BYTE      AIPL
      000000F0H   SFRSYM    DATA     BYTE      B
      0000009AH   SFRSYM    DATA     BYTE      BGRC
      000000A7H   SFRSYM    DATA     BYTE      BOOT_INFO
      000000A3H   SFRSYM    DATA     BYTE      BUZZ_CNT
      000000A2H   SFRSYM    DATA     BYTE      BUZZ_CTL
      000000FAH   SFRSYM    DATA     BYTE      CCAP0H
      000000EAH   SFRSYM    DATA     BYTE      CCAP0L
      000000FBH   SFRSYM    DATA     BYTE      CCAP1H
      000000EBH   SFRSYM    DATA     BYTE      CCAP1L
      000000FCH   SFRSYM    DATA     BYTE      CCAP2H
      000000ECH   SFRSYM    DATA     BYTE      CCAP2L
      000000FDH   SFRSYM    DATA     BYTE      CCAP3H
      000000EDH   SFRSYM    DATA     BYTE      CCAP3L
      000000FEH   SFRSYM    DATA     BYTE      CCAP4H
      000000EEH   SFRSYM    DATA     BYTE      CCAP4L
      000000DAH   SFRSYM    DATA     BYTE      CCAPM0
      000000DBH   SFRSYM    DATA     BYTE      CCAPM1
      000000DCH   SFRSYM    DATA     BYTE      CCAPM2
      000000DDH   SFRSYM    DATA     BYTE      CCAPM3
      000000DEH   SFRSYM    DATA     BYTE      CCAPM4
      000000DFH   SFRSYM    DATA     BYTE      CCAPO
      000000D8H   SFRSYM    DATA     BIT       CCF0
      000000D8H.1 SFRSYM    DATA     BIT       CCF1
      000000D8H.2 SFRSYM    DATA     BIT       CCF2
      000000D8H.3 SFRSYM    DATA     BIT       CCF3
      000000D8H.4 SFRSYM    DATA     BIT       CCF4
      0000008EH   SFRSYM    DATA     BYTE      CCMCON
L251 LINKER/LOCATER V4.55a                                                            08/25/2018  14:15:50  PAGE 13


      0000008FH   SFRSYM    DATA     BYTE      CCMVAL
      000000D8H   SFRSYM    DATA     BYTE      CCON
      000000D8H.7 SFRSYM    DATA     BIT       CF
      000000F9H   SFRSYM    DATA     BYTE      CH
      000000E9H   SFRSYM    DATA     BYTE      CL
      00000092H   SFRSYM    DATA     BYTE      CLKC
      00000093H   SFRSYM    DATA     BYTE      CLKC1
      00000094H   SFRSYM    DATA     BYTE      CLKC2
      000000D9H   SFRSYM    DATA     BYTE      CMOD
      000000D8H.6 SFRSYM    DATA     BIT       CR
      000000D0H.7 SFRSYM    DATA     BIT       CY
      00000083H   SFRSYM    DATA     BYTE      DPH
      00000082H   SFRSYM    DATA     BYTE      DPL
      00000084H   SFRSYM    DATA     BYTE      DPXL
      000000A8H.7 SFRSYM    DATA     BIT       EA
      000000A8H.6 SFRSYM    DATA     BIT       EC
      000000A8H.4 SFRSYM    DATA     BIT       ES
      000000A8H.1 SFRSYM    DATA     BIT       ET0
      000000A8H.3 SFRSYM    DATA     BIT       ET1
      000000A8H.5 SFRSYM    DATA     BIT       ET2
      000000A8H   SFRSYM    DATA     BIT       EX0
      000000A8H.2 SFRSYM    DATA     BIT       EX1
      000000D0H.5 SFRSYM    DATA     BIT       F0
      00000098H.7 SFRSYM    DATA     BIT       FE
      00000091H   SFRSYM    DATA     BYTE      FLASH_CTL
      000000B1H   SFRSYM    DATA     BYTE      FLASH_PL
      000000D6H   SFRSYM    DATA     BYTE      I2CADR
      000000D4H   SFRSYM    DATA     BYTE      I2CCON
      000000D5H   SFRSYM    DATA     BYTE      I2CDAT
      000000D7H   SFRSYM    DATA     BYTE      I2CSTA
      000000D2H   SFRSYM    DATA     BYTE      I2C_RUN
      000000D3H   SFRSYM    DATA     BYTE      I2C_TM
      000000A8H   SFRSYM    DATA     BYTE      IE0
      00000088H.1 SFRSYM    DATA     BIT       IE0_
      00000088H.3 SFRSYM    DATA     BIT       IE1_
      000000B7H   SFRSYM    DATA     BYTE      IPH0
      000000B8H   SFRSYM    DATA     BYTE      IPL0
      00000088H   SFRSYM    DATA     BIT       IT0
      00000088H.2 SFRSYM    DATA     BIT       IT1
      00000085H   SFRSYM    DATA     BYTE      LOCKSFR
      00000095H   SFRSYM    DATA     BYTE      LPM
      000000B6H   SFRSYM    DATA     BYTE      LVDC1
      000000BFH   SFRSYM    DATA     BYTE      LVDC2
      00000097H   SFRSYM    DATA     BYTE      MMCON
      000000A1H   SFRSYM    DATA     BYTE      MPAGE
      000000D0H.2 SFRSYM    DATA     BIT       OV
      000000D0H   SFRSYM    DATA     BIT       P
      00000080H   SFRSYM    DATA     BYTE      P0
      000000ACH   SFRSYM    DATA     BYTE      P0_DIR
      00000090H   SFRSYM    DATA     BYTE      P1
      000000ADH   SFRSYM    DATA     BYTE      P1_DIR
      000000A0H   SFRSYM    DATA     BYTE      P2
      000000AEH   SFRSYM    DATA     BYTE      P2_DIR
      000000B0H   SFRSYM    DATA     BYTE      P3
      000000AFH   SFRSYM    DATA     BYTE      P3_DIR
      000000E2H   SFRSYM    DATA     BYTE      P4
      000000F2H   SFRSYM    DATA     BYTE      P4_DIR
      000000E3H   SFRSYM    DATA     BYTE      P5
      000000F3H   SFRSYM    DATA     BYTE      P5_DIR
      000000E4H   SFRSYM    DATA     BYTE      P6
      000000F4H   SFRSYM    DATA     BYTE      P6_DIR
      000000E5H   SFRSYM    DATA     BYTE      P7
      000000F5H   SFRSYM    DATA     BYTE      P7_DIR
      000000E6H   SFRSYM    DATA     BYTE      P8
      000000F6H   SFRSYM    DATA     BYTE      P8_DIR
L251 LINKER/LOCATER V4.55a                                                            08/25/2018  14:15:50  PAGE 14


      00000087H   SFRSYM    DATA     BYTE      PCON
      000000B3H   SFRSYM    DATA     BYTE      PERI_CLK0
      000000B4H   SFRSYM    DATA     BYTE      PERI_CLK1
      000000B5H   SFRSYM    DATA     BYTE      PERI_CLK2
      000000D0H   SFRSYM    DATA     BYTE      PSW
      000000D1H   SFRSYM    DATA     BYTE      PSW1
      00000098H.2 SFRSYM    DATA     BIT       RB8
      00000098H.4 SFRSYM    DATA     BIT       REN
      000000A4H   SFRSYM    DATA     BYTE      RESET_FLAG
      00000098H   SFRSYM    DATA     BIT       RI
      000000D0H.3 SFRSYM    DATA     BIT       RS0
      000000D0H.4 SFRSYM    DATA     BIT       RS1
      000000A9H   SFRSYM    DATA     BYTE      SADDR
      000000BAH   SFRSYM    DATA     BYTE      SADDR1
      000000B9H   SFRSYM    DATA     BYTE      SADEN
      000000BBH   SFRSYM    DATA     BYTE      SADEN1
      00000099H   SFRSYM    DATA     BYTE      SBUF
      000000ABH   SFRSYM    DATA     BYTE      SBUF1
      00000098H   SFRSYM    DATA     BYTE      SCON
      000000AAH   SFRSYM    DATA     BYTE      SCON1
      00000098H.7 SFRSYM    DATA     BIT       SM0
      00000098H.6 SFRSYM    DATA     BIT       SM1
      00000098H.5 SFRSYM    DATA     BIT       SM2
      00000081H   SFRSYM    DATA     BYTE      SP
      000000BEH   SFRSYM    DATA     BYTE      SPH
      00000098H.3 SFRSYM    DATA     BIT       TB8
      00000088H   SFRSYM    DATA     BYTE      TCON
      000000C3H   SFRSYM    DATA     BYTE      TCON2
      0000008CH   SFRSYM    DATA     BYTE      TH0
      0000008DH   SFRSYM    DATA     BYTE      TH1
      000000C5H   SFRSYM    DATA     BYTE      TH2
      000000C7H   SFRSYM    DATA     BYTE      TH3
      00000098H.1 SFRSYM    DATA     BIT       TI
      0000008AH   SFRSYM    DATA     BYTE      TL0
      0000008BH   SFRSYM    DATA     BYTE      TL1
      000000C4H   SFRSYM    DATA     BYTE      TL2
      000000C6H   SFRSYM    DATA     BYTE      TL3
      00000089H   SFRSYM    DATA     BYTE      TMOD
      00000088H.4 SFRSYM    DATA     BIT       TR0
      00000088H.6 SFRSYM    DATA     BIT       TR1
      000000C9H   SFRSYM    DATA     BYTE      U0_TM
      000000C8H   SFRSYM    DATA     BYTE      U0_TMR
      000000CBH   SFRSYM    DATA     BYTE      U1_TM
      000000CAH   SFRSYM    DATA     BYTE      U1_TMR
      000000BCH   SFRSYM    DATA     BYTE      VC1
      000000BDH   SFRSYM    DATA     BYTE      VC2
      000000CCH   SFRSYM    DATA     BYTE      VC3
      000000A5H   SFRSYM    DATA     BYTE      WDTCON
      000000A6H   SFRSYM    DATA     BYTE      WDTRST
      000000CFH   SFRSYM    DATA     BYTE      X32K_CTL
      00000420H   SYMBOL    NUMBER   ---       EDATALEN
      00FF3442H   SYMBOL    CODE     ---       EDATALOOP
      00000001H   SYMBOL    NUMBER   ---       EDF
      00000001H   SYMBOL    NUMBER   ---       EMAP
      00000000H   SYMBOL    NUMBER   ---       HDATALEN
      00010000H   SYMBOL    NUMBER   ---       HDATASTART
      00000000H   SYMBOL    NUMBER   ---       IBPSTACK
      00000100H   SYMBOL    NUMBER   ---       IBPSTACKTOP
      00000001H   SYMBOL    NUMBER   ---       INTR
      00000001H   SYMBOL    NUMBER   ---       PAGM
      00000003H   SYMBOL    NUMBER   ---       RDRG
      00000001H   SYMBOL    NUMBER   ---       SRCM
      00000100H   SYMBOL    NUMBER   ---       STACKSIZE
      00FF343AH   SYMBOL    CODE     ---       STARTUP1
      00000003H   SYMBOL    NUMBER   ---       WSA
L251 LINKER/LOCATER V4.55a                                                            08/25/2018  14:15:50  PAGE 15


      00000003H   SYMBOL    NUMBER   ---       WSB
      00000001H   SYMBOL    NUMBER   ---       XALE
      00000000H   SYMBOL    NUMBER   ---       XBPSTACK
      00010000H   SYMBOL    NUMBER   ---       XBPSTACKTOP
      00000000H   SYMBOL    NUMBER   ---       XDATALEN
      00010000H   SYMBOL    NUMBER   ---       XDATASTART

      00FF0000H   BLOCK     CODE     NEAR LAB  LVL=0
      00FF0000H   LINE      CODE     ---       #183
      ---         BLOCKEND  ---      ---       LVL=0

      00FF343AH   BLOCK     CODE     NEAR LAB  LVL=0
      00FF343AH   LINE      CODE     ---       #188
      00FF343DH   LINE      CODE     ---       #191
      00FF3441H   LINE      CODE     ---       #192
      00FF3442H   LINE      CODE     ---       #193
      00FF3445H   LINE      CODE     ---       #194
      00FF3447H   LINE      CODE     ---       #195
      00FF3449H   LINE      CODE     ---       #235
      ---         BLOCKEND  ---      ---       LVL=0

      00FF3476H   BLOCK     CODE     NEAR LAB  LVL=0
      00FF3476H   LINE      CODE     ---       #238
      ---         BLOCKEND  ---      ---       LVL=0

      ---         MODULE    ---      ---       main
      00FF2AF5H   PUBLIC    CODE     ---       main
      00FF0F41H   PUBLIC    CODE     ---       Meter_Time
      00FF007AH   PUBLIC    CODE     ---       reserved_trap
      00FF0090H   PUBLIC    CODE     ---       password_reserve
      00FF0086H   PUBLIC    CODE     ---       flashlockbit_reserve
      000000D0H   SFRSYM    DATA     BYTE      PSW
      000000A6H   SFRSYM    DATA     BYTE      WDTRST
      00000095H   SFRSYM    DATA     BYTE      LPM
      000000C3H   SFRSYM    DATA     BYTE      TCON2
      000000A5H   SFRSYM    DATA     BYTE      WDTCON
      000000C0H   SFRSYM    DATA     BYTE      AIF
      000000E8H   SFRSYM    DATA     BYTE      AIE
      000000A8H   SFRSYM    DATA     BYTE      IE0
      00000088H   SFRSYM    DATA     BYTE      TCON
      00000098H   SFRSYM    DATA     BYTE      SCON
      000000D8H   SFRSYM    DATA     BYTE      CCON
      00000092H   SFRSYM    DATA     BYTE      CLKC
      000000A8H.7 SFRSYM    DATA     BIT       EA
      000000E2H   SFRSYM    DATA     BYTE      P4
      00000080H   SFRSYM    DATA     BYTE      P0

      00FF0F41H   BLOCK     CODE     ---       LVL=0
      00FF0F41H   LINE      CODE     ---       #35
      00FF0F43H   LINE      CODE     ---       #39
      00FF0F62H   LINE      CODE     ---       #41
      00FF0F6CH   LINE      CODE     ---       #42
      00FF0F81H   LINE      CODE     ---       #44
      00FF0F92H   LINE      CODE     ---       #45
      00FF0F9AH   LINE      CODE     ---       #46
      00FF0FA2H   LINE      CODE     ---       #47
      00FF0FAAH   LINE      CODE     ---       #48
      00FF0FB2H   LINE      CODE     ---       #49
      00FF0FBAH   LINE      CODE     ---       #50
      00FF0FBEH   LINE      CODE     ---       #51
      00FF0FC5H   LINE      CODE     ---       #52
      00FF0FD6H   LINE      CODE     ---       #53
      00FF0FD6H   LINE      CODE     ---       #54
      00FF0FE5H   LINE      CODE     ---       #55
      00FF0FE5H   LINE      CODE     ---       #57
L251 LINKER/LOCATER V4.55a                                                            08/25/2018  14:15:50  PAGE 16


      00FF0FF0H   LINE      CODE     ---       #59
      00FF1011H   LINE      CODE     ---       #61
      00FF101DH   LINE      CODE     ---       #63
      00FF1022H   LINE      CODE     ---       #64
      00FF1025H   LINE      CODE     ---       #65
      00FF102EH   LINE      CODE     ---       #67
      00FF1031H   LINE      CODE     ---       #68
      00FF1034H   LINE      CODE     ---       #70
      00FF1037H   LINE      CODE     ---       #71
      00FF103AH   LINE      CODE     ---       #75
      00FF104AH   LINE      CODE     ---       #77
      00FF1053H   LINE      CODE     ---       #78
      00FF1064H   LINE      CODE     ---       #80
      00FF1070H   LINE      CODE     ---       #82
      00FF1075H   LINE      CODE     ---       #83
      00FF1078H   LINE      CODE     ---       #84
      00FF1081H   LINE      CODE     ---       #86
      00FF1084H   LINE      CODE     ---       #87
      00FF1087H   LINE      CODE     ---       #89
      00FF108AH   LINE      CODE     ---       #90
      00FF108AH   LINE      CODE     ---       #91
      00FF109BH   LINE      CODE     ---       #92
      00FF109BH   LINE      CODE     ---       #93
      00FF109BH   LINE      CODE     ---       #113
      00FF10B4H   LINE      CODE     ---       #115
      00FF10BDH   LINE      CODE     ---       #116
      00FF10CFH   LINE      CODE     ---       #117
      00FF10DBH   LINE      CODE     ---       #119
      00FF10DFH   LINE      CODE     ---       #120
      00FF10E2H   LINE      CODE     ---       #121
      00FF10E5H   LINE      CODE     ---       #125
      00FF10EAH   LINE      CODE     ---       #126
      00FF10EAH   LINE      CODE     ---       #128
      00FF1103H   LINE      CODE     ---       #130
      00FF1108H   LINE      CODE     ---       #131
      00FF1111H   LINE      CODE     ---       #132
      00FF111DH   LINE      CODE     ---       #134
      00FF1123H   LINE      CODE     ---       #135
      00FF112DH   LINE      CODE     ---       #136
      00FF1130H   LINE      CODE     ---       #137
      00FF1135H   LINE      CODE     ---       #138
      00FF1138H   LINE      CODE     ---       #142
      00FF113DH   LINE      CODE     ---       #143
      00FF1146H   LINE      CODE     ---       #144
      00FF1152H   LINE      CODE     ---       #146
      00FF1157H   LINE      CODE     ---       #147
      00FF1161H   LINE      CODE     ---       #148
      00FF1161H   LINE      CODE     ---       #151
      00FF1172H   LINE      CODE     ---       #153
      00FF117BH   LINE      CODE     ---       #154
      00FF1180H   LINE      CODE     ---       #155
      00FF118CH   LINE      CODE     ---       #157
      00FF118FH   LINE      CODE     ---       #158
      00FF1194H   LINE      CODE     ---       #159
      00FF119EH   LINE      CODE     ---       #160
      00FF11A1H   LINE      CODE     ---       #161
      00FF11A7H   LINE      CODE     ---       #162
      00FF11AAH   LINE      CODE     ---       #164
      00FF11BDH   LINE      CODE     ---       #166
      00FF11C2H   LINE      CODE     ---       #167
      00FF11CBH   LINE      CODE     ---       #168
      00FF11DAH   LINE      CODE     ---       #170
      00FF11DDH   LINE      CODE     ---       #171
      00FF11E2H   LINE      CODE     ---       #172
      00FF11ECH   LINE      CODE     ---       #173
L251 LINKER/LOCATER V4.55a                                                            08/25/2018  14:15:50  PAGE 17


      00FF11F0H   LINE      CODE     ---       #174
      00FF11F3H   LINE      CODE     ---       #175
      00FF11F3H   LINE      CODE     ---       #179
      00FF11FCH   LINE      CODE     ---       #180
      00FF1204H   LINE      CODE     ---       #182
      00FF1209H   LINE      CODE     ---       #183
      00FF120DH   LINE      CODE     ---       #184
      00FF1210H   LINE      CODE     ---       #185
      00FF1210H   LINE      CODE     ---       #187
      00FF122BH   LINE      CODE     ---       #189
      00FF122EH   LINE      CODE     ---       #190
      00FF1232H   LINE      CODE     ---       #191
      00FF1232H   LINE      CODE     ---       #193
      00FF1272H   LINE      CODE     ---       #195
      00FF1276H   LINE      CODE     ---       #196
      00FF127BH   LINE      CODE     ---       #197
      00FF127FH   LINE      CODE     ---       #198
      ---         BLOCKEND  ---      ---       LVL=0

      00FF2AF5H   BLOCK     CODE     ---       LVL=0
      00FF2AF5H   LINE      CODE     ---       #201
      00FF2AF5H   LINE      CODE     ---       #203
      00FF2AF8H   LINE      CODE     ---       #204
      00FF2AFBH   LINE      CODE     ---       #205
      00FF2AFEH   LINE      CODE     ---       #206
      00FF2B01H   LINE      CODE     ---       #207
      00FF2B04H   LINE      CODE     ---       #208
      00FF2B11H   LINE      CODE     ---       #210
      00FF2B14H   LINE      CODE     ---       #211
      00FF2B17H   LINE      CODE     ---       #212
      00FF2B1AH   LINE      CODE     ---       #213
      00FF2B1DH   LINE      CODE     ---       #214
      00FF2B20H   LINE      CODE     ---       #215
      00FF2B22H   LINE      CODE     ---       #216
      00FF2B25H   LINE      CODE     ---       #217
      00FF2B2AH   LINE      CODE     ---       #218
      00FF2B2DH   LINE      CODE     ---       #219
      00FF2B30H   LINE      CODE     ---       #220
      00FF2B33H   LINE      CODE     ---       #221
      00FF2B39H   LINE      CODE     ---       #222
      00FF2B3EH   LINE      CODE     ---       #223
      00FF2B44H   LINE      CODE     ---       #224
      00FF2B4AH   LINE      CODE     ---       #225
      00FF2B4EH   LINE      CODE     ---       #226
      00FF2B53H   LINE      CODE     ---       #227
      00FF2B57H   LINE      CODE     ---       #228
      00FF2B72H   LINE      CODE     ---       #229
      00FF2B75H   LINE      CODE     ---       #230
      00FF2B78H   LINE      CODE     ---       #231
      00FF2B78H   LINE      CODE     ---       #233
      00FF2B7BH   LINE      CODE     ---       #234
      00FF2B8AH   LINE      CODE     ---       #235
      00FF2B90H   LINE      CODE     ---       #236
      00FF2B92H   LINE      CODE     ---       #237
      00FF2B94H   LINE      CODE     ---       #238
      ---         BLOCKEND  ---      ---       LVL=0

      ---         MODULE    ---      ---       AD
      00FF30E5H   PUBLIC    CODE     ---       ADC_Read
      00FF31ACH   PUBLIC    CODE     ---       INTERRUPT_ADC
      000003EFH   PUBLIC    EDATA    DWORD     adc_result
      0000009DH   SFRSYM    DATA     BYTE      ADC3
      0000009CH   SFRSYM    DATA     BYTE      ADC2
      000000D0H   SFRSYM    DATA     BYTE      PSW
      0000009BH   SFRSYM    DATA     BYTE      ADC1
L251 LINKER/LOCATER V4.55a                                                            08/25/2018  14:15:50  PAGE 18


      000000C3H   SFRSYM    DATA     BYTE      TCON2
      000000C0H   SFRSYM    DATA     BYTE      AIF
      000000E8H   SFRSYM    DATA     BYTE      AIE
      000000A8H   SFRSYM    DATA     BYTE      IE0
      00000088H   SFRSYM    DATA     BYTE      TCON
      00000098H   SFRSYM    DATA     BYTE      SCON
      000000D8H   SFRSYM    DATA     BYTE      CCON
      0000009AH   SFRSYM    DATA     BYTE      BGRC
      0000009FH   SFRSYM    DATA     BYTE      ADCL
      0000009EH   SFRSYM    DATA     BYTE      ADCH

      00FF30E5H   BLOCK     CODE     ---       LVL=0
      00FF30E5H   LINE      CODE     ---       #10
      00FF30E5H   LINE      CODE     ---       #12
      00FF30EBH   LINE      CODE     ---       #13
      00FF30EEH   LINE      CODE     ---       #14
      00FF30F1H   LINE      CODE     ---       #15
      00FF30FDH   LINE      CODE     ---       #16
      00FF310EH   LINE      CODE     ---       #17
      00FF3111H   LINE      CODE     ---       #18
      00FF3114H   LINE      CODE     ---       #19
      00FF311BH   LINE      CODE     ---       #20
      00FF311EH   LINE      CODE     ---       #21
      00FF3121H   LINE      CODE     ---       #22
      00FF3127H   LINE      CODE     ---       #23
      00FF312AH   LINE      CODE     ---       #24
      00FF3134H   LINE      CODE     ---       #25
      00FF3140H   LINE      CODE     ---       #26
      00FF3149H   LINE      CODE     ---       #27
      ---         BLOCKEND  ---      ---       LVL=0

      00FF31ACH   BLOCK     CODE     ---       LVL=0
      00FF31ACH   LINE      CODE     ---       #31
      00FF31B2H   LINE      CODE     ---       #33
      00FF31BCH   LINE      CODE     ---       #34
      00FF31CCH   LINE      CODE     ---       #35
      00FF31DCH   LINE      CODE     ---       #36
      00FF31F9H   LINE      CODE     ---       #37
      00FF31FDH   LINE      CODE     ---       #38
      00FF3202H   LINE      CODE     ---       #39
      00FF3205H   LINE      CODE     ---       #40
      ---         BLOCKEND  ---      ---       LVL=0

      ---         MODULE    ---      ---       Flash
      00FF0026H   PUBLIC    CODE     ---       Flash_Read_Write
      00FF0046H   PUBLIC    CODE     ---       Read_SegC
      00FF3314H   PUBLIC    CODE     ---       Write_SegC
      00FF364BH   PUBLIC    CODE     ---       Delay
      00000008H   PUBLIC    EDATA    BYTE      nolowVoltage
      00000009H   PUBLIC    EDATA    BYTE      time_Flag
      0000000AH   PUBLIC    EDATA    ---       meter_data
      00000172H   PUBLIC    EDATA    BYTE      date
      00000173H   PUBLIC    EDATA    BYTE      FmForceFlag
      00000174H   PUBLIC    EDATA    BYTE      adc_flag
      00000175H   PUBLIC    EDATA    BYTE      lowVoltageFlag
      00000176H   PUBLIC    EDATA    BYTE      CDMA_time
      00000177H   PUBLIC    EDATA    BYTE      lowVoltage
      00000178H   PUBLIC    EDATA    BYTE      FMflag
      00000179H   PUBLIC    EDATA    BYTE      doubletime
      0000017AH   PUBLIC    EDATA    BYTE      FmOrder
      0000017BH   PUBLIC    EDATA    BYTE      FDtime
      0000017CH   PUBLIC    EDATA    BYTE      count_time
      0000017DH   PUBLIC    EDATA    ---       C_DATA
      00000213H   PUBLIC    EDATA    WORD      mem_date
      00000215H   PUBLIC    EDATA    BYTE      pul_flag
L251 LINKER/LOCATER V4.55a                                                            08/25/2018  14:15:50  PAGE 19


      00000216H   PUBLIC    EDATA    BYTE      returntime
      00000217H   PUBLIC    EDATA    BYTE      RX0_flag
      00000218H   PUBLIC    EDATA    BYTE      key_time
      00000219H   PUBLIC    EDATA    BYTE      showIP
      0000021AH   PUBLIC    EDATA    ---       showdata
      0000021EH   PUBLIC    EDATA    BYTE      flagtype
      0000021FH   PUBLIC    EDATA    BYTE      FDcycflag
      00000220H   PUBLIC    EDATA    DWORD     consumed_water
      00000224H   PUBLIC    EDATA    BYTE      Nodoubletime
      00000225H   PUBLIC    EDATA    ---       g_write_value
      00000255H   PUBLIC    EDATA    BYTE      z
      000000D0H   SFRSYM    DATA     BYTE      PSW
      000000B1H   SFRSYM    DATA     BYTE      Flash_PL
      000000C3H   SFRSYM    DATA     BYTE      TCON2
      000000C0H   SFRSYM    DATA     BYTE      AIF
      000000E8H   SFRSYM    DATA     BYTE      AIE
      000000A8H   SFRSYM    DATA     BYTE      IE0
      00000088H   SFRSYM    DATA     BYTE      TCON
      00000091H   SFRSYM    DATA     BYTE      Flash_CTL
      00000098H   SFRSYM    DATA     BYTE      SCON
      000000D8H   SFRSYM    DATA     BYTE      CCON

      00FF364BH   BLOCK     CODE     ---       LVL=0
      WR6         REGSYM    ---      WORD      i
      WR6         REGSYM    ---      WORD      k
      00FF364BH   LINE      CODE     ---       #74
      00FF364BH   LINE      CODE     ---       #75
      00FF364BH   LINE      CODE     ---       #77
      00FF364DH   LINE      CODE     ---       #78
      00FF3655H   LINE      CODE     ---       #79
      ---         BLOCKEND  ---      ---       LVL=0

      00FF0026H   BLOCK     CODE     ---       LVL=0
      R7          REGSYM    ---      BYTE      i
      00FF0026H   LINE      CODE     ---       #86
      00FF0026H   LINE      CODE     ---       #87
      00FF0026H   LINE      CODE     ---       #89
      00FF0028H   LINE      CODE     ---       #91
      00FF0032H   LINE      CODE     ---       #92
      00FF0039H   LINE      CODE     ---       #93
      ---         BLOCKEND  ---      ---       LVL=0

      00FF3314H   BLOCK     CODE     ---       LVL=0
      R7          REGSYM    ---      BYTE      i
      00FF3314H   LINE      CODE     ---       #100
      00FF3314H   LINE      CODE     ---       #101
      00FF3314H   LINE      CODE     ---       #105
      00FF3317H   LINE      CODE     ---       #106
      00FF331AH   LINE      CODE     ---       #107
      00FF3326H   LINE      CODE     ---       #109
      00FF3329H   LINE      CODE     ---       #110
      00FF3338H   LINE      CODE     ---       #111
      00FF333DH   LINE      CODE     ---       #113
      00FF3340H   LINE      CODE     ---       #114
      00FF3342H   LINE      CODE     ---       #116
      00FF3357H   LINE      CODE     ---       #117
      00FF335DH   LINE      CODE     ---       #118
      00FF3362H   LINE      CODE     ---       #119
      ---         BLOCKEND  ---      ---       LVL=0

      00FF0046H   BLOCK     CODE     ---       LVL=0
      R7          REGSYM    ---      BYTE      i
      00FF0046H   LINE      CODE     ---       #126
      00FF0046H   LINE      CODE     ---       #127
      00FF0046H   LINE      CODE     ---       #129
L251 LINKER/LOCATER V4.55a                                                            08/25/2018  14:15:50  PAGE 20


      00FF0049H   LINE      CODE     ---       #130
      00FF004BH   LINE      CODE     ---       #132
      00FF0060H   LINE      CODE     ---       #133
      00FF0067H   LINE      CODE     ---       #134
      ---         BLOCKEND  ---      ---       LVL=0

      ---         MODULE    ---      ---       Uart
      00FF373FH   PUBLIC    HCONST   ---       aucCRCHi
      00FF383FH   PUBLIC    HCONST   ---       aucCRCLo
      00FF1A02H   PUBLIC    CODE     ---       Data_UP
      00FF2D3BH   PUBLIC    CODE     ---       NB_Open
      00FF2E2BH   PUBLIC    CODE     ---       NB_NCSEARFCN
      00FF1563H   PUBLIC    CODE     ---       NB_NSOST
      00FF2EA1H   PUBLIC    CODE     ---       NB_CMEE
      00FF2A47H   PUBLIC    CODE     ---       NB_CIMI
      00FF3479H   PUBLIC    CODE     ---       Uart_Init
      00FF1D59H   PUBLIC    CODE     ---       NB_RX
      00FF2756H   PUBLIC    CODE     ---       NB_CFUN
      00FF219EH   PUBLIC    CODE     ---       NB_NMGS
      00FF34F6H   PUBLIC    CODE     ---       NB_Send2
      00FF3363H   PUBLIC    CODE     ---       usMBCRC16
      00FF356FH   PUBLIC    CODE     ---       Uart0_Init
      00FF3533H   PUBLIC    CODE     ---       strwu
      00FF2062H   PUBLIC    CODE     ---       NB_Timing_Send
      00FF2822H   PUBLIC    CODE     ---       NB_CEREG
      00FF25ABH   PUBLIC    CODE     ---       NB_CSQ
      00FF320CH   PUBLIC    CODE     ---       RX0_read
      00FF363EH   PUBLIC    CODE     ---       Uart0_TX
      00FF0003H   PUBLIC    CODE     ---       Set_DCO
      00FF2685H   PUBLIC    CODE     ---       NB_CGATT
      00FF3079H   PUBLIC    CODE     ---       NB_Close
      00FF17ECH   PUBLIC    CODE     ---       NB_NUESTATS
      00FF22D9H   PUBLIC    CODE     ---       INTERRUPT_UART
      00FF089EH   PUBLIC    CODE     ---       Data_deal
      00FF2F17H   PUBLIC    CODE     ---       NB_IoT_123
      00FF361EH   PUBLIC    CODE     ---       Clear_RX
      00FF2F8DH   PUBLIC    CODE     ---       NB_IoT_124
      00FF362EH   PUBLIC    CODE     ---       Check_cmd
      00FF3003H   PUBLIC    CODE     ---       NB_IoT_IP
      00FF35F7H   PUBLIC    CODE     ---       Check_Str
      00FF00A0H   PUBLIC    CODE     ---       RX_Judge
      00FF1EEAH   PUBLIC    CODE     ---       NB_Send
      00FF35CEH   PUBLIC    CODE     ---       NB_IoT
      00000256H   PUBLIC    EDATA    WORD      TX_Flag
      00000258H   PUBLIC    EDATA    ---       TX
      00000320H   PUBLIC    EDATA    BYTE      RX1_Flag
      00000321H   PUBLIC    EDATA    BYTE      Read_Flag
      00000322H   PUBLIC    EDATA    ---       RX0
      000003EAH   PUBLIC    EDATA    BYTE      ucCRCHi
      000003EBH   PUBLIC    EDATA    WORD      j
      000003EDH   PUBLIC    EDATA    BYTE      ucCRCLo
      000003EEH   PUBLIC    EDATA    BYTE      y
      000000D0H   SFRSYM    DATA     BYTE      PSW
      000000C3H   SFRSYM    DATA     BYTE      TCON2
      000000AAH   SFRSYM    DATA     BYTE      SCON1
      000000ABH   SFRSYM    DATA     BYTE      SBUF1
      000000CAH   SFRSYM    DATA     BYTE      U1_TMR
      000000C8H   SFRSYM    DATA     BYTE      U0_TMR
      00000094H   SFRSYM    DATA     BYTE      CLKC2
      000000C0H   SFRSYM    DATA     BYTE      AIF
      00000093H   SFRSYM    DATA     BYTE      CLKC1
      000000E8H   SFRSYM    DATA     BYTE      AIE
      000000F3H   SFRSYM    DATA     BYTE      P5_DIR
      000000ADH   SFRSYM    DATA     BYTE      P1_DIR
      000000ACH   SFRSYM    DATA     BYTE      P0_DIR
L251 LINKER/LOCATER V4.55a                                                            08/25/2018  14:15:50  PAGE 21


      000000A8H   SFRSYM    DATA     BYTE      IE0
      00000088H   SFRSYM    DATA     BYTE      TCON
      00000098H   SFRSYM    DATA     BYTE      SCON
      00000087H   SFRSYM    DATA     BYTE      PCON
      00000099H   SFRSYM    DATA     BYTE      SBUF
      000000D8H   SFRSYM    DATA     BYTE      CCON
      00000092H   SFRSYM    DATA     BYTE      CLKC
      000000A8H.4 SFRSYM    DATA     BIT       ES
      000000B8H   SFRSYM    DATA     BYTE      IPL0
      000000B7H   SFRSYM    DATA     BYTE      IPH0
      000000CBH   SFRSYM    DATA     BYTE      U1_TM
      000000C9H   SFRSYM    DATA     BYTE      U0_TM
      000000E3H   SFRSYM    DATA     BYTE      P5
      00000090H   SFRSYM    DATA     BYTE      P1
      00000080H   SFRSYM    DATA     BYTE      P0

      00FF0003H   BLOCK     CODE     ---       LVL=0
      00FF0003H   LINE      CODE     ---       #80
      00FF0003H   LINE      CODE     ---       #83
      00FF0006H   LINE      CODE     ---       #85
      00FF0013H   LINE      CODE     ---       #86
      00FF0018H   LINE      CODE     ---       #88
      ---         BLOCKEND  ---      ---       LVL=0

      00FF3479H   BLOCK     CODE     ---       LVL=0
      00FF3479H   LINE      CODE     ---       #95
      00FF3479H   LINE      CODE     ---       #108
      00FF347CH   LINE      CODE     ---       #109
      00FF347FH   LINE      CODE     ---       #110
      00FF348BH   LINE      CODE     ---       #111
      00FF3497H   LINE      CODE     ---       #112
      00FF34A3H   LINE      CODE     ---       #113
      00FF34A6H   LINE      CODE     ---       #114
      00FF34A9H   LINE      CODE     ---       #115
      00FF34ACH   LINE      CODE     ---       #116
      00FF34AFH   LINE      CODE     ---       #117
      00FF34B2H   LINE      CODE     ---       #118
      00FF34B5H   LINE      CODE     ---       #119
      00FF34B7H   LINE      CODE     ---       #120
      ---         BLOCKEND  ---      ---       LVL=0

      00FF356FH   BLOCK     CODE     ---       LVL=0
      00FF356FH   LINE      CODE     ---       #127
      00FF356FH   LINE      CODE     ---       #130
      00FF3572H   LINE      CODE     ---       #131
      00FF3575H   LINE      CODE     ---       #132
      00FF3581H   LINE      CODE     ---       #133
      00FF358DH   LINE      CODE     ---       #134
      00FF3590H   LINE      CODE     ---       #135
      00FF3593H   LINE      CODE     ---       #136
      00FF3596H   LINE      CODE     ---       #137
      00FF3599H   LINE      CODE     ---       #138
      00FF359CH   LINE      CODE     ---       #139
      00FF359FH   LINE      CODE     ---       #140
      00FF35A1H   LINE      CODE     ---       #141
      ---         BLOCKEND  ---      ---       LVL=0

      00FF3363H   BLOCK     CODE     ---       LVL=0
      REG=0       REGSYM    ---      ---       pucFrame
      WR6         REGSYM    ---      WORD      usLen
      WR4         REGSYM    ---      WORD      iIndex12
      00FF3363H   LINE      CODE     ---       #148
      00FF3363H   LINE      CODE     ---       #149
      00FF3363H   LINE      CODE     ---       #151
      00FF3369H   LINE      CODE     ---       #152
L251 LINKER/LOCATER V4.55a                                                            08/25/2018  14:15:50  PAGE 22


      00FF336FH   LINE      CODE     ---       #153
      00FF3371H   LINE      CODE     ---       #155
      00FF337EH   LINE      CODE     ---       #157
      00FF3395H   LINE      CODE     ---       #159
      00FF33A8H   LINE      CODE     ---       #160
      00FF33B0H   LINE      CODE     ---       #161
      ---         BLOCKEND  ---      ---       LVL=0

      00FF361EH   BLOCK     CODE     ---       LVL=0
      R11         REGSYM    ---      BYTE      n
      R11         REGSYM    ---      BYTE      i
      00FF361EH   LINE      CODE     ---       #168
      00FF361EH   LINE      CODE     ---       #169
      00FF361EH   LINE      CODE     ---       #171
      00FF3620H   LINE      CODE     ---       #172
      00FF3623H   LINE      CODE     ---       #174
      00FF3629H   LINE      CODE     ---       #175
      ---         BLOCKEND  ---      ---       LVL=0

      00FF3533H   BLOCK     CODE     ---       LVL=0
      REG=7       REGSYM    ---      ---       str1
      REG=1       REGSYM    ---      ---       str2
      00FF3535H   BLOCK     CODE     NEAR LAB  LVL=1
      REG=0       REGSYM    ---      ---       cp
      REG=7       REGSYM    ---      ---       s1
      REG=6       REGSYM    ---      ---       s2
      ---         BLOCKEND  ---      ---       LVL=1
      00FF3533H   LINE      CODE     ---       #183
      00FF3535H   LINE      CODE     ---       #184
      00FF3535H   LINE      CODE     ---       #185
      00FF3535H   LINE      CODE     ---       #188
      00FF353AH   LINE      CODE     ---       #189
      00FF353DH   LINE      CODE     ---       #191
      00FF353FH   LINE      CODE     ---       #193
      00FF3541H   LINE      CODE     ---       #194
      00FF3543H   LINE      CODE     ---       #196
      00FF355DH   LINE      CODE     ---       #199
      00FF3562H   LINE      CODE     ---       #200
      00FF3565H   LINE      CODE     ---       #202
      00FF3567H   LINE      CODE     ---       #203
      00FF356CH   LINE      CODE     ---       #204
      00FF356EH   LINE      CODE     ---       #205
      ---         BLOCKEND  ---      ---       LVL=0

      00FF362EH   BLOCK     CODE     ---       LVL=0
      R11         REGSYM    ---      BYTE      n
      REG=7       REGSYM    ---      ---       str
      00FF3630H   BLOCK     CODE     NEAR LAB  LVL=1
      REG=1       REGSYM    ---      ---       strx
      ---         BLOCKEND  ---      ---       LVL=1
      00FF362EH   LINE      CODE     ---       #212
      00FF3630H   LINE      CODE     ---       #213
      00FF3630H   LINE      CODE     ---       #214
      00FF3632H   LINE      CODE     ---       #215
      00FF3634H   LINE      CODE     ---       #216
      00FF363DH   LINE      CODE     ---       #217
      00FF363DH   LINE      CODE     ---       #218
      ---         BLOCKEND  ---      ---       LVL=0

      00FF35F7H   BLOCK     CODE     ---       LVL=0
      R10         REGSYM    ---      CHAR      str
      00FF35F9H   BLOCK     CODE     NEAR LAB  LVL=1
      R11         REGSYM    ---      BYTE      i
      ---         BLOCKEND  ---      ---       LVL=1
      00FF35F7H   LINE      CODE     ---       #225
L251 LINKER/LOCATER V4.55a                                                            08/25/2018  14:15:50  PAGE 23


      00FF35F9H   LINE      CODE     ---       #226
      00FF35F9H   LINE      CODE     ---       #229
      00FF35FAH   LINE      CODE     ---       #231
      00FF3604H   LINE      CODE     ---       #233
      00FF3604H   LINE      CODE     ---       #234
      00FF360AH   LINE      CODE     ---       #236
      00FF360AH   LINE      CODE     ---       #237
      ---         BLOCKEND  ---      ---       LVL=0

      00FF363EH   BLOCK     CODE     ---       LVL=0
      00FF363EH   LINE      CODE     ---       #244
      00FF363EH   LINE      CODE     ---       #246
      00FF3644H   LINE      CODE     ---       #247
      00FF364AH   LINE      CODE     ---       #248
      ---         BLOCKEND  ---      ---       LVL=0

      00FF3079H   BLOCK     CODE     ---       LVL=0
      R10         REGSYM    ---      BYTE      time
      00FF3079H   LINE      CODE     ---       #255
      00FF307BH   LINE      CODE     ---       #257
      00FF307EH   LINE      CODE     ---       #258
      00FF308AH   LINE      CODE     ---       #259
      00FF3096H   LINE      CODE     ---       #260
      00FF3099H   LINE      CODE     ---       #261
      00FF309CH   LINE      CODE     ---       #262
      00FF30A8H   LINE      CODE     ---       #263
      00FF30B4H   LINE      CODE     ---       #264
      00FF30C0H   LINE      CODE     ---       #265
      00FF30C4H   LINE      CODE     ---       #266
      00FF30C9H   LINE      CODE     ---       #267
      00FF30CCH   LINE      CODE     ---       #268
      00FF30D0H   LINE      CODE     ---       #269
      00FF30D5H   LINE      CODE     ---       #270
      00FF30D8H   LINE      CODE     ---       #271
      00FF30DCH   LINE      CODE     ---       #272
      00FF30E2H   LINE      CODE     ---       #273
      ---         BLOCKEND  ---      ---       LVL=0

      00FF2D3BH   BLOCK     CODE     ---       LVL=0
      WR14        REGSYM    ---      WORD      time
      00FF2D3FH   BLOCK     CODE     NEAR LAB  LVL=1
      ---         BLOCKEND  ---      ---       LVL=1
      00FF2D3BH   LINE      CODE     ---       #281
      00FF2D3FH   LINE      CODE     ---       #282
      00FF2D3FH   LINE      CODE     ---       #283
      00FF2D3FH   LINE      CODE     ---       #284
      00FF2D42H   LINE      CODE     ---       #285
      00FF2D48H   LINE      CODE     ---       #286
      00FF2D4EH   LINE      CODE     ---       #288
      00FF2D5DH   LINE      CODE     ---       #289
      00FF2D65H   LINE      CODE     ---       #290
      00FF2D6DH   LINE      CODE     ---       #291
      00FF2D73H   LINE      CODE     ---       #292
      00FF2D75H   LINE      CODE     ---       #294
      00FF2D7BH   LINE      CODE     ---       #295
      00FF2D7BH   LINE      CODE     ---       #296
      00FF2D83H   LINE      CODE     ---       #297
      00FF2D85H   LINE      CODE     ---       #299
      00FF2D8CH   LINE      CODE     ---       #300
      00FF2D9EH   LINE      CODE     ---       #302
      00FF2D9EH   LINE      CODE     ---       #303
      00FF2D9EH   LINE      CODE     ---       #304
      00FF2D9EH   LINE      CODE     ---       #305
      00FF2D9EH   LINE      CODE     ---       #306
      00FF2DA2H   LINE      CODE     ---       #307
L251 LINKER/LOCATER V4.55a                                                            08/25/2018  14:15:50  PAGE 24


      00FF2DAAH   LINE      CODE     ---       #308
      00FF2DAEH   LINE      CODE     ---       #309
      00FF2DAEH   LINE      CODE     ---       #310
      00FF2DB0H   LINE      CODE     ---       #311
      ---         BLOCKEND  ---      ---       LVL=0

      00FF25ABH   BLOCK     CODE     ---       LVL=0
      R14         REGSYM    ---      BYTE      time
      00FF25AFH   BLOCK     CODE     NEAR LAB  LVL=1
      R15         REGSYM    ---      BYTE      nb
      ---         BLOCKEND  ---      ---       LVL=1
      00FF25ABH   LINE      CODE     ---       #318
      00FF25AFH   LINE      CODE     ---       #319
      00FF25AFH   LINE      CODE     ---       #320
      00FF25B1H   LINE      CODE     ---       #321
      00FF25C0H   LINE      CODE     ---       #322
      00FF25C8H   LINE      CODE     ---       #323
      00FF25D0H   LINE      CODE     ---       #324
      00FF25D6H   LINE      CODE     ---       #325
      00FF25D8H   LINE      CODE     ---       #327
      00FF25E1H   LINE      CODE     ---       #328
      00FF25E1H   LINE      CODE     ---       #329
      00FF25E9H   LINE      CODE     ---       #330
      00FF25ECH   LINE      CODE     ---       #332
      00FF25F2H   LINE      CODE     ---       #333
      00FF25F8H   LINE      CODE     ---       #334
      00FF260AH   LINE      CODE     ---       #336
      00FF2611H   LINE      CODE     ---       #337
      00FF2633H   LINE      CODE     ---       #338
      00FF2641H   LINE      CODE     ---       #340
      00FF2644H   LINE      CODE     ---       #341
      00FF2646H   LINE      CODE     ---       #342
      00FF2646H   LINE      CODE     ---       #345
      00FF264AH   LINE      CODE     ---       #346
      00FF2652H   LINE      CODE     ---       #347
      00FF265AH   LINE      CODE     ---       #348
      00FF2660H   LINE      CODE     ---       #349
      00FF2662H   LINE      CODE     ---       #351
      00FF2668H   LINE      CODE     ---       #352
      00FF2668H   LINE      CODE     ---       #353
      00FF2670H   LINE      CODE     ---       #354
      00FF2670H   LINE      CODE     ---       #355
      00FF2670H   LINE      CODE     ---       #356
      00FF2672H   LINE      CODE     ---       #357
      00FF2676H   LINE      CODE     ---       #358
      00FF2680H   LINE      CODE     ---       #360
      00FF2682H   LINE      CODE     ---       #361
      ---         BLOCKEND  ---      ---       LVL=0

      00FF2685H   BLOCK     CODE     ---       LVL=0
      R14         REGSYM    ---      BYTE      time
      00FF2689H   BLOCK     CODE     NEAR LAB  LVL=1
      R15         REGSYM    ---      BYTE      nb
      ---         BLOCKEND  ---      ---       LVL=1
      00FF2685H   LINE      CODE     ---       #368
      00FF2689H   LINE      CODE     ---       #369
      00FF2689H   LINE      CODE     ---       #370
      00FF268BH   LINE      CODE     ---       #371
      00FF269AH   LINE      CODE     ---       #372
      00FF26A2H   LINE      CODE     ---       #373
      00FF26AAH   LINE      CODE     ---       #374
      00FF26B0H   LINE      CODE     ---       #375
      00FF26B2H   LINE      CODE     ---       #377
      00FF26BBH   LINE      CODE     ---       #378
      00FF26BBH   LINE      CODE     ---       #379
L251 LINKER/LOCATER V4.55a                                                            08/25/2018  14:15:50  PAGE 25


      00FF26C3H   LINE      CODE     ---       #380
      00FF26C6H   LINE      CODE     ---       #382
      00FF26CCH   LINE      CODE     ---       #383
      00FF26D2H   LINE      CODE     ---       #384
      00FF26E4H   LINE      CODE     ---       #386
      00FF26EBH   LINE      CODE     ---       #387
      00FF26F7H   LINE      CODE     ---       #388
      00FF26FCH   LINE      CODE     ---       #390
      00FF26FCH   LINE      CODE     ---       #391
      00FF26FCH   LINE      CODE     ---       #394
      00FF270EH   LINE      CODE     ---       #396
      00FF2711H   LINE      CODE     ---       #397
      00FF2713H   LINE      CODE     ---       #398
      00FF2713H   LINE      CODE     ---       #399
      00FF2717H   LINE      CODE     ---       #400
      00FF271FH   LINE      CODE     ---       #401
      00FF2727H   LINE      CODE     ---       #402
      00FF272DH   LINE      CODE     ---       #403
      00FF272FH   LINE      CODE     ---       #405
      00FF2735H   LINE      CODE     ---       #406
      00FF2735H   LINE      CODE     ---       #407
      00FF273DH   LINE      CODE     ---       #408
      00FF273DH   LINE      CODE     ---       #409
      00FF273DH   LINE      CODE     ---       #410
      00FF273FH   LINE      CODE     ---       #411
      00FF2743H   LINE      CODE     ---       #412
      00FF274DH   LINE      CODE     ---       #413
      00FF2751H   LINE      CODE     ---       #414
      00FF2753H   LINE      CODE     ---       #415
      ---         BLOCKEND  ---      ---       LVL=0

      00FF2822H   BLOCK     CODE     ---       LVL=0
      R14         REGSYM    ---      BYTE      time
      00FF2826H   BLOCK     CODE     NEAR LAB  LVL=1
      R15         REGSYM    ---      BYTE      nb
      ---         BLOCKEND  ---      ---       LVL=1
      00FF2822H   LINE      CODE     ---       #422
      00FF2826H   LINE      CODE     ---       #423
      00FF2826H   LINE      CODE     ---       #424
      00FF2828H   LINE      CODE     ---       #425
      00FF2837H   LINE      CODE     ---       #426
      00FF283FH   LINE      CODE     ---       #427
      00FF2847H   LINE      CODE     ---       #428
      00FF284DH   LINE      CODE     ---       #429
      00FF284FH   LINE      CODE     ---       #431
      00FF2858H   LINE      CODE     ---       #432
      00FF2858H   LINE      CODE     ---       #433
      00FF2860H   LINE      CODE     ---       #434
      00FF2862H   LINE      CODE     ---       #436
      00FF2868H   LINE      CODE     ---       #437
      00FF286EH   LINE      CODE     ---       #438
      00FF2880H   LINE      CODE     ---       #440
      00FF2887H   LINE      CODE     ---       #441
      00FF2899H   LINE      CODE     ---       #443
      00FF289CH   LINE      CODE     ---       #444
      00FF289EH   LINE      CODE     ---       #445
      00FF289EH   LINE      CODE     ---       #448
      00FF28A2H   LINE      CODE     ---       #449
      00FF28AAH   LINE      CODE     ---       #450
      00FF28B2H   LINE      CODE     ---       #451
      00FF28B8H   LINE      CODE     ---       #452
      00FF28BAH   LINE      CODE     ---       #454
      00FF28C0H   LINE      CODE     ---       #455
      00FF28C0H   LINE      CODE     ---       #456
      00FF28C8H   LINE      CODE     ---       #457
L251 LINKER/LOCATER V4.55a                                                            08/25/2018  14:15:50  PAGE 26


      00FF28C8H   LINE      CODE     ---       #458
      00FF28C8H   LINE      CODE     ---       #459
      00FF28CAH   LINE      CODE     ---       #460
      00FF28CEH   LINE      CODE     ---       #461
      00FF28D5H   LINE      CODE     ---       #462
      00FF28D9H   LINE      CODE     ---       #463
      00FF28DBH   LINE      CODE     ---       #464
      ---         BLOCKEND  ---      ---       LVL=0

      00FF2EA1H   BLOCK     CODE     ---       LVL=0
      WR12        REGSYM    ---      WORD      time
      00FF2EA7H   BLOCK     CODE     NEAR LAB  LVL=1
      R15         REGSYM    ---      BYTE      nb
      ---         BLOCKEND  ---      ---       LVL=1
      00FF2EA1H   LINE      CODE     ---       #472
      00FF2EA7H   LINE      CODE     ---       #473
      00FF2EA7H   LINE      CODE     ---       #474
      00FF2EA9H   LINE      CODE     ---       #475
      00FF2EB8H   LINE      CODE     ---       #476
      00FF2EC0H   LINE      CODE     ---       #477
      00FF2EC8H   LINE      CODE     ---       #478
      00FF2ECEH   LINE      CODE     ---       #479
      00FF2ED0H   LINE      CODE     ---       #481
      00FF2ED6H   LINE      CODE     ---       #482
      00FF2ED6H   LINE      CODE     ---       #483
      00FF2EDEH   LINE      CODE     ---       #484
      00FF2EE0H   LINE      CODE     ---       #486
      00FF2EE7H   LINE      CODE     ---       #487
      00FF2EF9H   LINE      CODE     ---       #489
      00FF2EFCH   LINE      CODE     ---       #490
      00FF2EFEH   LINE      CODE     ---       #491
      00FF2EFEH   LINE      CODE     ---       #492
      00FF2F00H   LINE      CODE     ---       #493
      00FF2F04H   LINE      CODE     ---       #494
      00FF2F0CH   LINE      CODE     ---       #495
      00FF2F10H   LINE      CODE     ---       #496
      00FF2F12H   LINE      CODE     ---       #497
      ---         BLOCKEND  ---      ---       LVL=0

      00FF2756H   BLOCK     CODE     ---       LVL=0
      R13         REGSYM    ---      BYTE      n
      R14         REGSYM    ---      BYTE      time
      00FF275EH   BLOCK     CODE     NEAR LAB  LVL=1
      R15         REGSYM    ---      BYTE      nb
      ---         BLOCKEND  ---      ---       LVL=1
      00FF2756H   LINE      CODE     ---       #559
      00FF275EH   LINE      CODE     ---       #560
      00FF275EH   LINE      CODE     ---       #561
      00FF2760H   LINE      CODE     ---       #562
      00FF276FH   LINE      CODE     ---       #563
      00FF2777H   LINE      CODE     ---       #564
      00FF277DH   LINE      CODE     ---       #565
      00FF2783H   LINE      CODE     ---       #566
      00FF2789H   LINE      CODE     ---       #567
      00FF2791H   LINE      CODE     ---       #568
      00FF2799H   LINE      CODE     ---       #569
      00FF279FH   LINE      CODE     ---       #570
      00FF27A1H   LINE      CODE     ---       #572
      00FF27A7H   LINE      CODE     ---       #573
      00FF27A7H   LINE      CODE     ---       #574
      00FF27AFH   LINE      CODE     ---       #575
      00FF27B3H   LINE      CODE     ---       #576
      00FF27B5H   LINE      CODE     ---       #578
      00FF27BCH   LINE      CODE     ---       #579
      00FF27CEH   LINE      CODE     ---       #581
L251 LINKER/LOCATER V4.55a                                                            08/25/2018  14:15:50  PAGE 27


      00FF27D1H   LINE      CODE     ---       #582
      00FF27D3H   LINE      CODE     ---       #583
      00FF27D3H   LINE      CODE     ---       #584
      00FF27E5H   LINE      CODE     ---       #586
      00FF27E9H   LINE      CODE     ---       #587
      00FF27F1H   LINE      CODE     ---       #588
      00FF27F9H   LINE      CODE     ---       #589
      00FF27FBH   LINE      CODE     ---       #591
      00FF2801H   LINE      CODE     ---       #592
      00FF2801H   LINE      CODE     ---       #593
      00FF2809H   LINE      CODE     ---       #594
      00FF2809H   LINE      CODE     ---       #595
      00FF280BH   LINE      CODE     ---       #596
      00FF2811H   LINE      CODE     ---       #597
      00FF2817H   LINE      CODE     ---       #598
      00FF281BH   LINE      CODE     ---       #599
      00FF281DH   LINE      CODE     ---       #600
      ---         BLOCKEND  ---      ---       LVL=0

      00FF3003H   BLOCK     CODE     ---       LVL=0
      WR12        REGSYM    ---      WORD      time
      00FF3009H   BLOCK     CODE     NEAR LAB  LVL=1
      R15         REGSYM    ---      BYTE      nb
      ---         BLOCKEND  ---      ---       LVL=1
      00FF3003H   LINE      CODE     ---       #609
      00FF3009H   LINE      CODE     ---       #610
      00FF3009H   LINE      CODE     ---       #611
      00FF300BH   LINE      CODE     ---       #612
      00FF301AH   LINE      CODE     ---       #613
      00FF3022H   LINE      CODE     ---       #614
      00FF302AH   LINE      CODE     ---       #615
      00FF3030H   LINE      CODE     ---       #616
      00FF3032H   LINE      CODE     ---       #618
      00FF3038H   LINE      CODE     ---       #619
      00FF3038H   LINE      CODE     ---       #620
      00FF3040H   LINE      CODE     ---       #621
      00FF3042H   LINE      CODE     ---       #623
      00FF3049H   LINE      CODE     ---       #624
      00FF305BH   LINE      CODE     ---       #626
      00FF305EH   LINE      CODE     ---       #627
      00FF3060H   LINE      CODE     ---       #628
      00FF3060H   LINE      CODE     ---       #629
      00FF3062H   LINE      CODE     ---       #630
      00FF3066H   LINE      CODE     ---       #631
      00FF306EH   LINE      CODE     ---       #632
      00FF3072H   LINE      CODE     ---       #633
      00FF3074H   LINE      CODE     ---       #634
      ---         BLOCKEND  ---      ---       LVL=0

      00FF2F17H   BLOCK     CODE     ---       LVL=0
      WR12        REGSYM    ---      WORD      time
      00FF2F1DH   BLOCK     CODE     NEAR LAB  LVL=1
      R15         REGSYM    ---      BYTE      nb
      ---         BLOCKEND  ---      ---       LVL=1
      00FF2F17H   LINE      CODE     ---       #643
      00FF2F1DH   LINE      CODE     ---       #644
      00FF2F1DH   LINE      CODE     ---       #645
      00FF2F1FH   LINE      CODE     ---       #646
      00FF2F2EH   LINE      CODE     ---       #647
      00FF2F36H   LINE      CODE     ---       #648
      00FF2F3EH   LINE      CODE     ---       #649
      00FF2F44H   LINE      CODE     ---       #650
      00FF2F46H   LINE      CODE     ---       #652
      00FF2F4CH   LINE      CODE     ---       #653
      00FF2F4CH   LINE      CODE     ---       #654
L251 LINKER/LOCATER V4.55a                                                            08/25/2018  14:15:50  PAGE 28


      00FF2F54H   LINE      CODE     ---       #655
      00FF2F56H   LINE      CODE     ---       #657
      00FF2F5DH   LINE      CODE     ---       #658
      00FF2F6FH   LINE      CODE     ---       #660
      00FF2F72H   LINE      CODE     ---       #661
      00FF2F74H   LINE      CODE     ---       #662
      00FF2F74H   LINE      CODE     ---       #663
      00FF2F76H   LINE      CODE     ---       #664
      00FF2F7AH   LINE      CODE     ---       #665
      00FF2F82H   LINE      CODE     ---       #666
      00FF2F86H   LINE      CODE     ---       #667
      00FF2F88H   LINE      CODE     ---       #668
      ---         BLOCKEND  ---      ---       LVL=0

      00FF2F8DH   BLOCK     CODE     ---       LVL=0
      R14         REGSYM    ---      BYTE      time
      00FF2F91H   BLOCK     CODE     NEAR LAB  LVL=1
      R15         REGSYM    ---      BYTE      nb
      ---         BLOCKEND  ---      ---       LVL=1
      00FF2F8DH   LINE      CODE     ---       #677
      00FF2F91H   LINE      CODE     ---       #678
      00FF2F91H   LINE      CODE     ---       #679
      00FF2F93H   LINE      CODE     ---       #680
      00FF2FA2H   LINE      CODE     ---       #681
      00FF2FAAH   LINE      CODE     ---       #682
      00FF2FB2H   LINE      CODE     ---       #683
      00FF2FB8H   LINE      CODE     ---       #684
      00FF2FBAH   LINE      CODE     ---       #686
      00FF2FC0H   LINE      CODE     ---       #687
      00FF2FC0H   LINE      CODE     ---       #688
      00FF2FC8H   LINE      CODE     ---       #689
      00FF2FCAH   LINE      CODE     ---       #691
      00FF2FD0H   LINE      CODE     ---       #692
      00FF2FD6H   LINE      CODE     ---       #693
      00FF2FE8H   LINE      CODE     ---       #695
      00FF2FEBH   LINE      CODE     ---       #696
      00FF2FEDH   LINE      CODE     ---       #697
      00FF2FEDH   LINE      CODE     ---       #698
      00FF2FEFH   LINE      CODE     ---       #699
      00FF2FF3H   LINE      CODE     ---       #700
      00FF2FFAH   LINE      CODE     ---       #701
      00FF2FFEH   LINE      CODE     ---       #702
      00FF3000H   LINE      CODE     ---       #703
      ---         BLOCKEND  ---      ---       LVL=0

      00FF17ECH   BLOCK     CODE     ---       LVL=0
      WR12        REGSYM    ---      WORD      time
      00FF17F0H   BLOCK     CODE     NEAR LAB  LVL=1
      000003F3H   SYMBOL    EDATA    BYTE      nb
      R15         REGSYM    ---      BYTE      i
      R14         REGSYM    ---      BYTE      a
      ---         BLOCKEND  ---      ---       LVL=1
      00FF17ECH   LINE      CODE     ---       #757
      00FF17F0H   LINE      CODE     ---       #758
      00FF17F0H   LINE      CODE     ---       #759
      00FF17F5H   LINE      CODE     ---       #760
      00FF1804H   LINE      CODE     ---       #761
      00FF180CH   LINE      CODE     ---       #762
      00FF1814H   LINE      CODE     ---       #763
      00FF181AH   LINE      CODE     ---       #764
      00FF181CH   LINE      CODE     ---       #766
      00FF1822H   LINE      CODE     ---       #767
      00FF1822H   LINE      CODE     ---       #768
      00FF182AH   LINE      CODE     ---       #769
      00FF1830H   LINE      CODE     ---       #770
L251 LINKER/LOCATER V4.55a                                                            08/25/2018  14:15:50  PAGE 29


      00FF1833H   LINE      CODE     ---       #772
      00FF183AH   LINE      CODE     ---       #773
      00FF184FH   LINE      CODE     ---       #776
      00FF1851H   LINE      CODE     ---       #778
      00FF1863H   LINE      CODE     ---       #780
      00FF1863H   LINE      CODE     ---       #781
      00FF186AH   LINE      CODE     ---       #783
      00FF1870H   LINE      CODE     ---       #784
      00FF1880H   LINE      CODE     ---       #786
      00FF1886H   LINE      CODE     ---       #787
      00FF1888H   LINE      CODE     ---       #788
      00FF188AH   LINE      CODE     ---       #791
      00FF188CH   LINE      CODE     ---       #793
      00FF189BH   LINE      CODE     ---       #794
      00FF18A2H   LINE      CODE     ---       #795
      00FF18A7H   LINE      CODE     ---       #797
      00FF18ACH   LINE      CODE     ---       #798
      00FF18BAH   LINE      CODE     ---       #799
      00FF18BCH   LINE      CODE     ---       #800
      00FF18C1H   LINE      CODE     ---       #802
      00FF18C6H   LINE      CODE     ---       #803
      00FF18ECH   LINE      CODE     ---       #804
      00FF18EEH   LINE      CODE     ---       #805
      00FF18F3H   LINE      CODE     ---       #807
      00FF18FDH   LINE      CODE     ---       #808
      00FF191FH   LINE      CODE     ---       #809
      00FF191FH   LINE      CODE     ---       #812
      00FF1921H   LINE      CODE     ---       #814
      00FF1941H   LINE      CODE     ---       #816
      00FF1941H   LINE      CODE     ---       #817
      00FF1948H   LINE      CODE     ---       #819
      00FF194EH   LINE      CODE     ---       #820
      00FF1950H   LINE      CODE     ---       #822
      00FF195FH   LINE      CODE     ---       #823
      00FF1966H   LINE      CODE     ---       #824
      00FF196BH   LINE      CODE     ---       #826
      00FF1970H   LINE      CODE     ---       #827
      00FF197EH   LINE      CODE     ---       #828
      00FF1980H   LINE      CODE     ---       #829
      00FF1985H   LINE      CODE     ---       #831
      00FF198AH   LINE      CODE     ---       #832
      00FF19A2H   LINE      CODE     ---       #833
      00FF19A4H   LINE      CODE     ---       #834
      00FF19A9H   LINE      CODE     ---       #836
      00FF19B7H   LINE      CODE     ---       #837
      00FF19DBH   LINE      CODE     ---       #838
      00FF19DBH   LINE      CODE     ---       #839
      00FF19E1H   LINE      CODE     ---       #840
      00FF19E3H   LINE      CODE     ---       #841
      00FF19E3H   LINE      CODE     ---       #842
      00FF19E8H   LINE      CODE     ---       #843
      00FF19EEH   LINE      CODE     ---       #844
      00FF19F7H   LINE      CODE     ---       #845
      00FF19FBH   LINE      CODE     ---       #846
      00FF19FFH   LINE      CODE     ---       #847
      ---         BLOCKEND  ---      ---       LVL=0

      00FF2A47H   BLOCK     CODE     ---       LVL=0
      R13         REGSYM    ---      BYTE      time
      00FF2A4BH   BLOCK     CODE     NEAR LAB  LVL=1
      R14         REGSYM    ---      BYTE      nb
      R15         REGSYM    ---      BYTE      i
      R13         REGSYM    ---      BYTE      a
      ---         BLOCKEND  ---      ---       LVL=1
      00FF2A47H   LINE      CODE     ---       #856
L251 LINKER/LOCATER V4.55a                                                            08/25/2018  14:15:50  PAGE 30


      00FF2A4BH   LINE      CODE     ---       #857
      00FF2A4BH   LINE      CODE     ---       #858
      00FF2A4DH   LINE      CODE     ---       #859
      00FF2A5CH   LINE      CODE     ---       #860
      00FF2A64H   LINE      CODE     ---       #861
      00FF2A6CH   LINE      CODE     ---       #862
      00FF2A72H   LINE      CODE     ---       #863
      00FF2A74H   LINE      CODE     ---       #865
      00FF2A7AH   LINE      CODE     ---       #866
      00FF2A7AH   LINE      CODE     ---       #867
      00FF2A82H   LINE      CODE     ---       #868
      00FF2A86H   LINE      CODE     ---       #869
      00FF2A88H   LINE      CODE     ---       #871
      00FF2A8FH   LINE      CODE     ---       #872
      00FF2AA1H   LINE      CODE     ---       #874
      00FF2AA3H   LINE      CODE     ---       #876
      00FF2AB5H   LINE      CODE     ---       #878
      00FF2AB5H   LINE      CODE     ---       #879
      00FF2ABCH   LINE      CODE     ---       #881
      00FF2AC2H   LINE      CODE     ---       #882
      00FF2AC4H   LINE      CODE     ---       #884
      00FF2AD2H   LINE      CODE     ---       #885
      00FF2AD9H   LINE      CODE     ---       #886
      00FF2ADCH   LINE      CODE     ---       #887
      00FF2ADEH   LINE      CODE     ---       #888
      00FF2ADEH   LINE      CODE     ---       #889
      00FF2AE0H   LINE      CODE     ---       #890
      00FF2AE6H   LINE      CODE     ---       #891
      00FF2AECH   LINE      CODE     ---       #892
      00FF2AF0H   LINE      CODE     ---       #893
      00FF2AF2H   LINE      CODE     ---       #894
      ---         BLOCKEND  ---      ---       LVL=0

      00FF219EH   BLOCK     CODE     ---       LVL=0
      R14         REGSYM    ---      BYTE      time
      00FF21A2H   BLOCK     CODE     NEAR LAB  LVL=1
      R15         REGSYM    ---      BYTE      nb
      ---         BLOCKEND  ---      ---       LVL=1
      00FF219EH   LINE      CODE     ---       #901
      00FF21A2H   LINE      CODE     ---       #902
      00FF21A2H   LINE      CODE     ---       #903
      00FF21A4H   LINE      CODE     ---       #905
      00FF21B3H   LINE      CODE     ---       #906
      00FF21BBH   LINE      CODE     ---       #907
      00FF21C3H   LINE      CODE     ---       #908
      00FF21C9H   LINE      CODE     ---       #909
      00FF21CCH   LINE      CODE     ---       #911
      00FF21D5H   LINE      CODE     ---       #912
      00FF21D5H   LINE      CODE     ---       #913
      00FF21DDH   LINE      CODE     ---       #915
      00FF21E0H   LINE      CODE     ---       #917
      00FF21E6H   LINE      CODE     ---       #918
      00FF21ECH   LINE      CODE     ---       #919
      00FF2201H   LINE      CODE     ---       #921
      00FF2204H   LINE      CODE     ---       #922
      00FF2207H   LINE      CODE     ---       #923
      00FF2207H   LINE      CODE     ---       #924
      00FF221CH   LINE      CODE     ---       #926
      00FF2220H   LINE      CODE     ---       #927
      00FF2228H   LINE      CODE     ---       #928
      00FF2230H   LINE      CODE     ---       #929
      00FF2233H   LINE      CODE     ---       #931
      00FF223CH   LINE      CODE     ---       #932
      00FF223CH   LINE      CODE     ---       #933
      00FF2244H   LINE      CODE     ---       #934
L251 LINKER/LOCATER V4.55a                                                            08/25/2018  14:15:50  PAGE 31


      00FF2244H   LINE      CODE     ---       #935
      00FF2246H   LINE      CODE     ---       #936
      00FF224DH   LINE      CODE     ---       #937
      00FF2254H   LINE      CODE     ---       #938
      00FF2258H   LINE      CODE     ---       #939
      00FF225FH   LINE      CODE     ---       #941
      00FF226EH   LINE      CODE     ---       #942
      00FF2276H   LINE      CODE     ---       #943
      00FF227EH   LINE      CODE     ---       #944
      00FF2284H   LINE      CODE     ---       #945
      00FF2287H   LINE      CODE     ---       #947
      00FF2290H   LINE      CODE     ---       #948
      00FF2290H   LINE      CODE     ---       #949
      00FF2298H   LINE      CODE     ---       #950
      00FF229BH   LINE      CODE     ---       #951
      00FF229EH   LINE      CODE     ---       #953
      00FF22A5H   LINE      CODE     ---       #954
      00FF22BAH   LINE      CODE     ---       #956
      00FF22BDH   LINE      CODE     ---       #957
      00FF22C0H   LINE      CODE     ---       #958
      00FF22C0H   LINE      CODE     ---       #959
      00FF22C2H   LINE      CODE     ---       #960
      00FF22C9H   LINE      CODE     ---       #961
      00FF22D0H   LINE      CODE     ---       #962
      00FF22D0H   LINE      CODE     ---       #963
      00FF22D4H   LINE      CODE     ---       #964
      00FF22D6H   LINE      CODE     ---       #965
      ---         BLOCKEND  ---      ---       LVL=0

      00FF2E2BH   BLOCK     CODE     ---       LVL=0
      R14         REGSYM    ---      BYTE      time
      00FF2E2FH   BLOCK     CODE     NEAR LAB  LVL=1
      R15         REGSYM    ---      BYTE      nb
      ---         BLOCKEND  ---      ---       LVL=1
      00FF2E2BH   LINE      CODE     ---       #1045
      00FF2E2FH   LINE      CODE     ---       #1046
      00FF2E2FH   LINE      CODE     ---       #1047
      00FF2E31H   LINE      CODE     ---       #1048
      00FF2E40H   LINE      CODE     ---       #1049
      00FF2E48H   LINE      CODE     ---       #1050
      00FF2E50H   LINE      CODE     ---       #1051
      00FF2E56H   LINE      CODE     ---       #1052
      00FF2E58H   LINE      CODE     ---       #1054
      00FF2E5EH   LINE      CODE     ---       #1055
      00FF2E5EH   LINE      CODE     ---       #1056
      00FF2E66H   LINE      CODE     ---       #1057
      00FF2E6AH   LINE      CODE     ---       #1058
      00FF2E6CH   LINE      CODE     ---       #1060
      00FF2E73H   LINE      CODE     ---       #1061
      00FF2E85H   LINE      CODE     ---       #1063
      00FF2E88H   LINE      CODE     ---       #1064
      00FF2E8AH   LINE      CODE     ---       #1065
      00FF2E8AH   LINE      CODE     ---       #1066
      00FF2E8CH   LINE      CODE     ---       #1067
      00FF2E92H   LINE      CODE     ---       #1068
      00FF2E98H   LINE      CODE     ---       #1069
      00FF2E9CH   LINE      CODE     ---       #1070
      00FF2E9EH   LINE      CODE     ---       #1071
      ---         BLOCKEND  ---      ---       LVL=0

      00FF35CEH   BLOCK     CODE     ---       LVL=0
      00FF35CEH   LINE      CODE     ---       #1078
      00FF35CEH   LINE      CODE     ---       #1079
      00FF35CEH   LINE      CODE     ---       #1080
      00FF35CEH   LINE      CODE     ---       #1081
L251 LINKER/LOCATER V4.55a                                                            08/25/2018  14:15:50  PAGE 32


      00FF35D5H   LINE      CODE     ---       #1082
      00FF35DBH   LINE      CODE     ---       #1083
      00FF35E1H   LINE      CODE     ---       #1084
      00FF35E8H   LINE      CODE     ---       #1085
      00FF35EEH   LINE      CODE     ---       #1086
      00FF35F4H   LINE      CODE     ---       #1087
      00FF35F4H   LINE      CODE     ---       #1088
      00FF35F6H   LINE      CODE     ---       #1089
      ---         BLOCKEND  ---      ---       LVL=0

      00FF1563H   BLOCK     CODE     ---       LVL=0
      REG=3       REGSYM    ---      ---       qwe
      000003F3H   SYMBOL    EDATA    WORD      n
      000003F5H   SYMBOL    EDATA    BYTE      time
      00FF156FH   BLOCK     CODE     NEAR LAB  LVL=1
      000003F6H   SYMBOL    EDATA    BYTE      nb
      R10         REGSYM    ---      BYTE      s
      R7          REGSYM    ---      BYTE      a
      R6          REGSYM    ---      BYTE      b
      ---         BLOCKEND  ---      ---       LVL=1
      00FF1563H   LINE      CODE     ---       #1097
      00FF156FH   LINE      CODE     ---       #1098
      00FF156FH   LINE      CODE     ---       #1099
      00FF1574H   LINE      CODE     ---       #1101
      00FF1584H   LINE      CODE     ---       #1102
      00FF1591H   LINE      CODE     ---       #1104
      00FF15A3H   LINE      CODE     ---       #1105
      00FF15B7H   LINE      CODE     ---       #1106
      00FF15C5H   LINE      CODE     ---       #1107
      00FF15C7H   LINE      CODE     ---       #1108
      00FF15CAH   LINE      CODE     ---       #1109
      00FF15D3H   LINE      CODE     ---       #1111
      00FF15E5H   LINE      CODE     ---       #1112
      00FF15F3H   LINE      CODE     ---       #1113
      00FF15F5H   LINE      CODE     ---       #1114
      00FF15F8H   LINE      CODE     ---       #1117
      00FF1600H   LINE      CODE     ---       #1118
      00FF1606H   LINE      CODE     ---       #1119
      00FF1606H   LINE      CODE     ---       #1120
      00FF1612H   LINE      CODE     ---       #1122
      00FF1617H   LINE      CODE     ---       #1124
      00FF162CH   LINE      CODE     ---       #1125
      00FF1632H   LINE      CODE     ---       #1126
      00FF163AH   LINE      CODE     ---       #1128
      00FF1646H   LINE      CODE     ---       #1129
      00FF1652H   LINE      CODE     ---       #1130
      00FF165EH   LINE      CODE     ---       #1131
      00FF166AH   LINE      CODE     ---       #1132
      00FF1676H   LINE      CODE     ---       #1133
      00FF1682H   LINE      CODE     ---       #1134
      00FF1685H   LINE      CODE     ---       #1135
      00FF168DH   LINE      CODE     ---       #1136
      00FF1695H   LINE      CODE     ---       #1138
      00FF16A1H   LINE      CODE     ---       #1139
      00FF16ADH   LINE      CODE     ---       #1140
      00FF16B9H   LINE      CODE     ---       #1141
      00FF16C5H   LINE      CODE     ---       #1142
      00FF16D1H   LINE      CODE     ---       #1143
      00FF16DDH   LINE      CODE     ---       #1144
      00FF16E0H   LINE      CODE     ---       #1145
      00FF16E8H   LINE      CODE     ---       #1146
      00FF16F9H   LINE      CODE     ---       #1147
      00FF16FDH   LINE      CODE     ---       #1148
      00FF170AH   LINE      CODE     ---       #1149
      00FF1720H   LINE      CODE     ---       #1150
L251 LINKER/LOCATER V4.55a                                                            08/25/2018  14:15:50  PAGE 33


      00FF1726H   LINE      CODE     ---       #1151
      00FF1730H   LINE      CODE     ---       #1152
      00FF1733H   LINE      CODE     ---       #1153
      00FF1739H   LINE      CODE     ---       #1154
      00FF173CH   LINE      CODE     ---       #1156
      00FF1745H   LINE      CODE     ---       #1157
      00FF1745H   LINE      CODE     ---       #1158
      00FF174DH   LINE      CODE     ---       #1159
      00FF1752H   LINE      CODE     ---       #1160
      00FF175AH   LINE      CODE     ---       #1161
      00FF175DH   LINE      CODE     ---       #1163
      00FF1763H   LINE      CODE     ---       #1164
      00FF1769H   LINE      CODE     ---       #1165
      00FF177EH   LINE      CODE     ---       #1167
      00FF1784H   LINE      CODE     ---       #1168
      00FF1787H   LINE      CODE     ---       #1169
      00FF1787H   LINE      CODE     ---       #1170
      00FF179CH   LINE      CODE     ---       #1172
      00FF17B2H   LINE      CODE     ---       #1173
      00FF17BAH   LINE      CODE     ---       #1174
      00FF17C2H   LINE      CODE     ---       #1175
      00FF17C5H   LINE      CODE     ---       #1176
      00FF17CAH   LINE      CODE     ---       #1177
      00FF17D3H   LINE      CODE     ---       #1178
      00FF17E1H   LINE      CODE     ---       #1179
      00FF17E5H   LINE      CODE     ---       #1180
      00FF17E9H   LINE      CODE     ---       #1181
      ---         BLOCKEND  ---      ---       LVL=0

      00FF089EH   BLOCK     CODE     ---       LVL=0
      R10         REGSYM    ---      BYTE      cs
      WR12        REGSYM    ---      WORD      num
      00FF08A4H   BLOCK     CODE     NEAR LAB  LVL=1
      WR14        REGSYM    ---      WORD      i
      ---         BLOCKEND  ---      ---       LVL=1
      00FF089EH   LINE      CODE     ---       #1188
      00FF08A4H   LINE      CODE     ---       #1189
      00FF08A4H   LINE      CODE     ---       #1191
      00FF08AAH   LINE      CODE     ---       #1192
      00FF08B0H   LINE      CODE     ---       #1193
      00FF08B6H   LINE      CODE     ---       #1194
      00FF08BCH   LINE      CODE     ---       #1195
      00FF08C2H   LINE      CODE     ---       #1196
      00FF08C8H   LINE      CODE     ---       #1197
      00FF08FEH   LINE      CODE     ---       #1199
      00FF08FEH   LINE      CODE     ---       #1200
      00FF0904H   LINE      CODE     ---       #1201
      00FF090CH   LINE      CODE     ---       #1202
      00FF0914H   LINE      CODE     ---       #1203
      00FF091CH   LINE      CODE     ---       #1204
      00FF0924H   LINE      CODE     ---       #1205
      00FF092CH   LINE      CODE     ---       #1206
      00FF0934H   LINE      CODE     ---       #1207
      00FF093CH   LINE      CODE     ---       #1208
      00FF0941H   LINE      CODE     ---       #1209
      00FF0945H   LINE      CODE     ---       #1210
      00FF0950H   LINE      CODE     ---       #1211
      00FF0958H   LINE      CODE     ---       #1212
      00FF0960H   LINE      CODE     ---       #1213
      00FF0966H   LINE      CODE     ---       #1214
      00FF096CH   LINE      CODE     ---       #1215
      00FF096FH   LINE      CODE     ---       #1216
      00FF096FH   LINE      CODE     ---       #1218
      00FF0972H   LINE      CODE     ---       #1220
      00FF0988H   LINE      CODE     ---       #1221
L251 LINKER/LOCATER V4.55a                                                            08/25/2018  14:15:50  PAGE 34


      00FF098EH   LINE      CODE     ---       #1222
      00FF0996H   LINE      CODE     ---       #1223
      00FF099EH   LINE      CODE     ---       #1224
      00FF09A6H   LINE      CODE     ---       #1225
      00FF09AEH   LINE      CODE     ---       #1226
      00FF09B6H   LINE      CODE     ---       #1227
      00FF09BEH   LINE      CODE     ---       #1228
      00FF09C6H   LINE      CODE     ---       #1229
      00FF09CBH   LINE      CODE     ---       #1230
      00FF09D1H   LINE      CODE     ---       #1232
      00FF09D9H   LINE      CODE     ---       #1233
      00FF09E1H   LINE      CODE     ---       #1234
      00FF09E9H   LINE      CODE     ---       #1236
      00FF09F1H   LINE      CODE     ---       #1237
      00FF09F9H   LINE      CODE     ---       #1238
      00FF0A01H   LINE      CODE     ---       #1239
      00FF0A09H   LINE      CODE     ---       #1240
      00FF0A11H   LINE      CODE     ---       #1241
      00FF0A19H   LINE      CODE     ---       #1242
      00FF0A21H   LINE      CODE     ---       #1244
      00FF0A29H   LINE      CODE     ---       #1246
      00FF0A31H   LINE      CODE     ---       #1247
      00FF0A39H   LINE      CODE     ---       #1249
      00FF0A41H   LINE      CODE     ---       #1251
      00FF0A49H   LINE      CODE     ---       #1253
      00FF0A51H   LINE      CODE     ---       #1254
      00FF0A59H   LINE      CODE     ---       #1256
      00FF0A61H   LINE      CODE     ---       #1264
      00FF0A6CH   LINE      CODE     ---       #1265
      00FF0A74H   LINE      CODE     ---       #1266
      00FF0A7CH   LINE      CODE     ---       #1268
      00FF0A82H   LINE      CODE     ---       #1269
      00FF0A88H   LINE      CODE     ---       #1270
      00FF0A8BH   LINE      CODE     ---       #1271
      00FF0A8BH   LINE      CODE     ---       #1272
      00FF0A93H   LINE      CODE     ---       #1273
      00FF0A9BH   LINE      CODE     ---       #1274
      00FF0AA3H   LINE      CODE     ---       #1275
      00FF0AABH   LINE      CODE     ---       #1276
      00FF0AB3H   LINE      CODE     ---       #1277
      00FF0ABBH   LINE      CODE     ---       #1278
      00FF0AC3H   LINE      CODE     ---       #1279
      00FF0ACBH   LINE      CODE     ---       #1280
      00FF0AD0H   LINE      CODE     ---       #1281
      00FF0AD6H   LINE      CODE     ---       #1282
      00FF0ADEH   LINE      CODE     ---       #1283
      00FF0AE9H   LINE      CODE     ---       #1284
      00FF0AF1H   LINE      CODE     ---       #1285
      00FF0AF9H   LINE      CODE     ---       #1286
      00FF0AFFH   LINE      CODE     ---       #1287
      00FF0B05H   LINE      CODE     ---       #1288
      00FF0B08H   LINE      CODE     ---       #1289
      00FF0B08H   LINE      CODE     ---       #1290
      00FF0B0EH   LINE      CODE     ---       #1291
      00FF0B16H   LINE      CODE     ---       #1292
      00FF0B1EH   LINE      CODE     ---       #1293
      00FF0B26H   LINE      CODE     ---       #1294
      00FF0B2EH   LINE      CODE     ---       #1295
      00FF0B36H   LINE      CODE     ---       #1296
      00FF0B3EH   LINE      CODE     ---       #1297
      00FF0B46H   LINE      CODE     ---       #1298
      00FF0B4BH   LINE      CODE     ---       #1299
      00FF0B51H   LINE      CODE     ---       #1300
      00FF0B5BH   LINE      CODE     ---       #1301
      00FF0B63H   LINE      CODE     ---       #1302
L251 LINKER/LOCATER V4.55a                                                            08/25/2018  14:15:50  PAGE 35


      00FF0B6EH   LINE      CODE     ---       #1303
      00FF0B76H   LINE      CODE     ---       #1304
      00FF0B7EH   LINE      CODE     ---       #1305
      00FF0B84H   LINE      CODE     ---       #1306
      00FF0B8AH   LINE      CODE     ---       #1307
      00FF0B8DH   LINE      CODE     ---       #1308
      00FF0B8DH   LINE      CODE     ---       #1309
      00FF0B93H   LINE      CODE     ---       #1310
      00FF0B9BH   LINE      CODE     ---       #1311
      00FF0BA3H   LINE      CODE     ---       #1312
      00FF0BABH   LINE      CODE     ---       #1313
      00FF0BB3H   LINE      CODE     ---       #1314
      00FF0BBBH   LINE      CODE     ---       #1315
      00FF0BC3H   LINE      CODE     ---       #1316
      00FF0BCBH   LINE      CODE     ---       #1317
      00FF0BD0H   LINE      CODE     ---       #1318
      00FF0BD6H   LINE      CODE     ---       #1320
      00FF0BDEH   LINE      CODE     ---       #1321
      00FF0BE6H   LINE      CODE     ---       #1322
      00FF0BEEH   LINE      CODE     ---       #1323
      00FF0BF6H   LINE      CODE     ---       #1324
      00FF0BFEH   LINE      CODE     ---       #1325
      00FF0C06H   LINE      CODE     ---       #1327
      00FF0C0EH   LINE      CODE     ---       #1329
      00FF0C16H   LINE      CODE     ---       #1330
      00FF0C1EH   LINE      CODE     ---       #1332
      00FF0C29H   LINE      CODE     ---       #1333
      00FF0C31H   LINE      CODE     ---       #1334
      00FF0C39H   LINE      CODE     ---       #1335
      00FF0C3FH   LINE      CODE     ---       #1336
      00FF0C45H   LINE      CODE     ---       #1337
      00FF0C48H   LINE      CODE     ---       #1338
      00FF0C48H   LINE      CODE     ---       #1339
      00FF0C4EH   LINE      CODE     ---       #1340
      00FF0C56H   LINE      CODE     ---       #1341
      00FF0C5EH   LINE      CODE     ---       #1342
      00FF0C66H   LINE      CODE     ---       #1343
      00FF0C6EH   LINE      CODE     ---       #1344
      00FF0C76H   LINE      CODE     ---       #1345
      00FF0C7EH   LINE      CODE     ---       #1346
      00FF0C86H   LINE      CODE     ---       #1347
      00FF0C8BH   LINE      CODE     ---       #1348
      00FF0C9CH   LINE      CODE     ---       #1349
      00FF0CA5H   LINE      CODE     ---       #1350
      00FF0CA9H   LINE      CODE     ---       #1351
      00FF0CBDH   LINE      CODE     ---       #1352
      00FF0CBDH   LINE      CODE     ---       #1353
      00FF0CBDH   LINE      CODE     ---       #1355
      00FF0CBDH   LINE      CODE     ---       #1356
      00FF0CBDH   LINE      CODE     ---       #1357
      00FF0CBDH   LINE      CODE     ---       #1359
      00FF0CBDH   LINE      CODE     ---       #1360
      00FF0CBDH   LINE      CODE     ---       #1361
      00FF0CC0H   LINE      CODE     ---       #1362
      00FF0CC0H   LINE      CODE     ---       #1363
      00FF0CC6H   LINE      CODE     ---       #1364
      00FF0CCEH   LINE      CODE     ---       #1365
      00FF0CD6H   LINE      CODE     ---       #1366
      00FF0CDEH   LINE      CODE     ---       #1367
      00FF0CE6H   LINE      CODE     ---       #1368
      00FF0CEEH   LINE      CODE     ---       #1369
      00FF0CF6H   LINE      CODE     ---       #1370
      00FF0CFEH   LINE      CODE     ---       #1371
      00FF0D03H   LINE      CODE     ---       #1372
      00FF0D14H   LINE      CODE     ---       #1373
L251 LINKER/LOCATER V4.55a                                                            08/25/2018  14:15:50  PAGE 36


      00FF0D24H   LINE      CODE     ---       #1374
      00FF0D28H   LINE      CODE     ---       #1375
      00FF0D3CH   LINE      CODE     ---       #1376
      00FF0D3CH   LINE      CODE     ---       #1377
      00FF0D3CH   LINE      CODE     ---       #1379
      00FF0D3CH   LINE      CODE     ---       #1380
      00FF0D3CH   LINE      CODE     ---       #1381
      00FF0D3CH   LINE      CODE     ---       #1383
      00FF0D3CH   LINE      CODE     ---       #1384
      00FF0D3CH   LINE      CODE     ---       #1385
      00FF0D3FH   LINE      CODE     ---       #1386
      00FF0D3FH   LINE      CODE     ---       #1387
      00FF0D45H   LINE      CODE     ---       #1388
      00FF0D4DH   LINE      CODE     ---       #1389
      00FF0D55H   LINE      CODE     ---       #1390
      00FF0D5DH   LINE      CODE     ---       #1391
      00FF0D65H   LINE      CODE     ---       #1392
      00FF0D6DH   LINE      CODE     ---       #1393
      00FF0D75H   LINE      CODE     ---       #1394
      00FF0D7DH   LINE      CODE     ---       #1395
      00FF0D82H   LINE      CODE     ---       #1396
      00FF0D93H   LINE      CODE     ---       #1397
      00FF0DA3H   LINE      CODE     ---       #1398
      00FF0DA7H   LINE      CODE     ---       #1399
      00FF0DBBH   LINE      CODE     ---       #1400
      00FF0DBBH   LINE      CODE     ---       #1401
      00FF0DBBH   LINE      CODE     ---       #1403
      00FF0DBBH   LINE      CODE     ---       #1404
      00FF0DBBH   LINE      CODE     ---       #1405
      00FF0DBBH   LINE      CODE     ---       #1407
      00FF0DBBH   LINE      CODE     ---       #1408
      00FF0DBBH   LINE      CODE     ---       #1409
      00FF0DBEH   LINE      CODE     ---       #1410
      00FF0DBEH   LINE      CODE     ---       #1411
      00FF0DC4H   LINE      CODE     ---       #1412
      00FF0DCCH   LINE      CODE     ---       #1413
      00FF0DD4H   LINE      CODE     ---       #1414
      00FF0DDCH   LINE      CODE     ---       #1415
      00FF0DE4H   LINE      CODE     ---       #1416
      00FF0DECH   LINE      CODE     ---       #1417
      00FF0DF4H   LINE      CODE     ---       #1418
      00FF0DFCH   LINE      CODE     ---       #1419
      00FF0E01H   LINE      CODE     ---       #1420
      00FF0E12H   LINE      CODE     ---       #1421
      00FF0E22H   LINE      CODE     ---       #1422
      00FF0E26H   LINE      CODE     ---       #1423
      00FF0E3AH   LINE      CODE     ---       #1424
      00FF0E3AH   LINE      CODE     ---       #1425
      00FF0E3AH   LINE      CODE     ---       #1427
      00FF0E3AH   LINE      CODE     ---       #1428
      00FF0E3AH   LINE      CODE     ---       #1429
      00FF0E3AH   LINE      CODE     ---       #1431
      00FF0E3AH   LINE      CODE     ---       #1432
      00FF0E3AH   LINE      CODE     ---       #1433
      00FF0E3DH   LINE      CODE     ---       #1434
      00FF0E3DH   LINE      CODE     ---       #1435
      00FF0E43H   LINE      CODE     ---       #1436
      00FF0E4BH   LINE      CODE     ---       #1437
      00FF0E53H   LINE      CODE     ---       #1438
      00FF0E5BH   LINE      CODE     ---       #1439
      00FF0E63H   LINE      CODE     ---       #1440
      00FF0E6BH   LINE      CODE     ---       #1441
      00FF0E73H   LINE      CODE     ---       #1442
      00FF0E7BH   LINE      CODE     ---       #1443
      00FF0E80H   LINE      CODE     ---       #1444
L251 LINKER/LOCATER V4.55a                                                            08/25/2018  14:15:50  PAGE 37


      00FF0E91H   LINE      CODE     ---       #1445
      00FF0EA1H   LINE      CODE     ---       #1446
      00FF0EA5H   LINE      CODE     ---       #1447
      00FF0EB9H   LINE      CODE     ---       #1448
      00FF0EBFH   LINE      CODE     ---       #1449
      00FF0ECDH   LINE      CODE     ---       #1451
      00FF0EDEH   LINE      CODE     ---       #1452
      00FF0EECH   LINE      CODE     ---       #1453
      00FF0EFAH   LINE      CODE     ---       #1455
      00FF0F06H   LINE      CODE     ---       #1456
      00FF0F12H   LINE      CODE     ---       #1457
      00FF0F12H   LINE      CODE     ---       #1458
      00FF0F12H   LINE      CODE     ---       #1459
      00FF0F19H   LINE      CODE     ---       #1461
      00FF0F29H   LINE      CODE     ---       #1463
      00FF0F31H   LINE      CODE     ---       #1464
      00FF0F33H   LINE      CODE     ---       #1465
      00FF0F3EH   LINE      CODE     ---       #1466
      ---         BLOCKEND  ---      ---       LVL=0

      00FF00A0H   BLOCK     CODE     ---       LVL=0
      00FF00A2H   BLOCK     CODE     NEAR LAB  LVL=1
      R15         REGSYM    ---      BYTE      i
      ---         BLOCKEND  ---      ---       LVL=1
      00FF00A0H   LINE      CODE     ---       #1473
      00FF00A2H   LINE      CODE     ---       #1474
      00FF00A2H   LINE      CODE     ---       #1476
      00FF0154H   LINE      CODE     ---       #1480
      00FF0174H   LINE      CODE     ---       #1482
      00FF017FH   LINE      CODE     ---       #1483
      00FF0193H   LINE      CODE     ---       #1485
      00FF019BH   LINE      CODE     ---       #1486
      00FF01A1H   LINE      CODE     ---       #1487
      00FF01A1H   LINE      CODE     ---       #1489
      00FF01C1H   LINE      CODE     ---       #1491
      00FF01CCH   LINE      CODE     ---       #1492
      00FF01E0H   LINE      CODE     ---       #1494
      00FF01E9H   LINE      CODE     ---       #1495
      00FF01E9H   LINE      CODE     ---       #1497
      00FF021AH   LINE      CODE     ---       #1499
      00FF0225H   LINE      CODE     ---       #1500
      00FF0239H   LINE      CODE     ---       #1502
      00FF0241H   LINE      CODE     ---       #1503
      00FF0249H   LINE      CODE     ---       #1504
      00FF0251H   LINE      CODE     ---       #1505
      00FF0259H   LINE      CODE     ---       #1506
      00FF0261H   LINE      CODE     ---       #1507
      00FF0269H   LINE      CODE     ---       #1508
      00FF0271H   LINE      CODE     ---       #1509
      00FF0274H   LINE      CODE     ---       #1510
      00FF0279H   LINE      CODE     ---       #1511
      00FF0281H   LINE      CODE     ---       #1512
      00FF028AH   LINE      CODE     ---       #1513
      00FF028AH   LINE      CODE     ---       #1515
      00FF02C0H   LINE      CODE     ---       #1517
      00FF02CBH   LINE      CODE     ---       #1518
      00FF02DFH   LINE      CODE     ---       #1520
      00FF02E3H   LINE      CODE     ---       #1521
      00FF02E8H   LINE      CODE     ---       #1522
      00FF02F0H   LINE      CODE     ---       #1523
      00FF02F9H   LINE      CODE     ---       #1524
      00FF02FEH   LINE      CODE     ---       #1526
      00FF02FFH   LINE      CODE     ---       #1527
      00FF0301H   LINE      CODE     ---       #1528
      00FF0306H   LINE      CODE     ---       #1530
L251 LINKER/LOCATER V4.55a                                                            08/25/2018  14:15:50  PAGE 38


      00FF030BH   LINE      CODE     ---       #1531
      00FF030BH   LINE      CODE     ---       #1532
      00FF0313H   LINE      CODE     ---       #1533
      00FF031CH   LINE      CODE     ---       #1534
      00FF0337H   LINE      CODE     ---       #1535
      00FF0337H   LINE      CODE     ---       #1537
      00FF036DH   LINE      CODE     ---       #1539
      00FF0378H   LINE      CODE     ---       #1540
      00FF0392H   LINE      CODE     ---       #1542
      00FF039AH   LINE      CODE     ---       #1544
      00FF03A6H   LINE      CODE     ---       #1546
      00FF03AEH   LINE      CODE     ---       #1547
      00FF03AFH   LINE      CODE     ---       #1548
      00FF03B1H   LINE      CODE     ---       #1551
      00FF03B3H   LINE      CODE     ---       #1552
      00FF03B3H   LINE      CODE     ---       #1553
      00FF03B5H   LINE      CODE     ---       #1554
      00FF03BAH   LINE      CODE     ---       #1556
      00FF03C6H   LINE      CODE     ---       #1557
      00FF03CEH   LINE      CODE     ---       #1558
      00FF03CFH   LINE      CODE     ---       #1559
      00FF03D1H   LINE      CODE     ---       #1560
      00FF03D6H   LINE      CODE     ---       #1562
      00FF03E0H   LINE      CODE     ---       #1563
      00FF03E5H   LINE      CODE     ---       #1564
      00FF03E9H   LINE      CODE     ---       #1565
      00FF03EDH   LINE      CODE     ---       #1566
      00FF03F3H   LINE      CODE     ---       #1567
      00FF03F3H   LINE      CODE     ---       #1569
      00FF03F6H   LINE      CODE     ---       #1570
      00FF03FEH   LINE      CODE     ---       #1571
      00FF0407H   LINE      CODE     ---       #1572
      00FF0407H   LINE      CODE     ---       #1574
      00FF0427H   LINE      CODE     ---       #1576
      00FF0432H   LINE      CODE     ---       #1577
      00FF0446H   LINE      CODE     ---       #1579
      00FF044FH   LINE      CODE     ---       #1580
      00FF044FH   LINE      CODE     ---       #1582
      00FF046FH   LINE      CODE     ---       #1584
      00FF047AH   LINE      CODE     ---       #1585
      00FF048EH   LINE      CODE     ---       #1587
      00FF0496H   LINE      CODE     ---       #1588
      00FF049EH   LINE      CODE     ---       #1589
      00FF04A7H   LINE      CODE     ---       #1590
      00FF04A7H   LINE      CODE     ---       #1592
      00FF04C7H   LINE      CODE     ---       #1594
      00FF04D2H   LINE      CODE     ---       #1595
      00FF04E6H   LINE      CODE     ---       #1597
      00FF04EBH   LINE      CODE     ---       #1598
      00FF04F3H   LINE      CODE     ---       #1599
      00FF04FCH   LINE      CODE     ---       #1600
      00FF04FCH   LINE      CODE     ---       #1602
      00FF052DH   LINE      CODE     ---       #1604
      00FF0538H   LINE      CODE     ---       #1605
      00FF054CH   LINE      CODE     ---       #1607
      00FF0554H   LINE      CODE     ---       #1608
      00FF055CH   LINE      CODE     ---       #1609
      00FF0564H   LINE      CODE     ---       #1610
      00FF056CH   LINE      CODE     ---       #1611
      00FF0574H   LINE      CODE     ---       #1612
      00FF057CH   LINE      CODE     ---       #1613
      00FF0584H   LINE      CODE     ---       #1615
      00FF0587H   LINE      CODE     ---       #1616
      00FF058CH   LINE      CODE     ---       #1617
      00FF0594H   LINE      CODE     ---       #1618
L251 LINKER/LOCATER V4.55a                                                            08/25/2018  14:15:50  PAGE 39


      00FF059DH   LINE      CODE     ---       #1619
      00FF059DH   LINE      CODE     ---       #1621
      00FF05CBH   LINE      CODE     ---       #1623
      00FF05D6H   LINE      CODE     ---       #1624
      00FF05EAH   LINE      CODE     ---       #1626
      00FF05F2H   LINE      CODE     ---       #1627
      00FF05FAH   LINE      CODE     ---       #1628
      00FF0602H   LINE      CODE     ---       #1629
      00FF060AH   LINE      CODE     ---       #1630
      00FF0612H   LINE      CODE     ---       #1631
      00FF061AH   LINE      CODE     ---       #1633
      00FF061DH   LINE      CODE     ---       #1634
      00FF0622H   LINE      CODE     ---       #1635
      00FF062AH   LINE      CODE     ---       #1636
      00FF0633H   LINE      CODE     ---       #1637
      00FF0633H   LINE      CODE     ---       #1639
      00FF0653H   LINE      CODE     ---       #1641
      00FF065EH   LINE      CODE     ---       #1642
      00FF0672H   LINE      CODE     ---       #1644
      00FF067BH   LINE      CODE     ---       #1645
      00FF067BH   LINE      CODE     ---       #1647
      00FF06B3H   LINE      CODE     ---       #1649
      00FF06BEH   LINE      CODE     ---       #1650
      00FF06D2H   LINE      CODE     ---       #1652
      00FF06DCH   LINE      CODE     ---       #1653
      00FF06E6H   LINE      CODE     ---       #1655
      00FF06E9H   LINE      CODE     ---       #1656
      00FF06EFH   LINE      CODE     ---       #1657
      00FF06F9H   LINE      CODE     ---       #1658
      00FF06FFH   LINE      CODE     ---       #1659
      00FF0705H   LINE      CODE     ---       #1664
      00FF070AH   LINE      CODE     ---       #1665
      00FF0712H   LINE      CODE     ---       #1666
      00FF071BH   LINE      CODE     ---       #1667
      00FF071BH   LINE      CODE     ---       #1669
      00FF0746H   LINE      CODE     ---       #1671
      00FF0751H   LINE      CODE     ---       #1672
      00FF0765H   LINE      CODE     ---       #1675
      00FF076DH   LINE      CODE     ---       #1677
      00FF0775H   LINE      CODE     ---       #1678
      00FF077DH   LINE      CODE     ---       #1679
      00FF0788H   LINE      CODE     ---       #1680
      00FF078BH   LINE      CODE     ---       #1681
      00FF078EH   LINE      CODE     ---       #1682
      00FF0793H   LINE      CODE     ---       #1683
      00FF079BH   LINE      CODE     ---       #1684
      00FF07A4H   LINE      CODE     ---       #1685
      00FF07A4H   LINE      CODE     ---       #1687
      00FF07C4H   LINE      CODE     ---       #1689
      00FF07CFH   LINE      CODE     ---       #1690
      00FF07E3H   LINE      CODE     ---       #1692
      00FF07E9H   LINE      CODE     ---       #1693
      00FF07EEH   LINE      CODE     ---       #1694
      00FF07F1H   LINE      CODE     ---       #1695
      00FF07F7H   LINE      CODE     ---       #1696
      00FF07FFH   LINE      CODE     ---       #1697
      00FF0808H   LINE      CODE     ---       #1698
      00FF0808H   LINE      CODE     ---       #1700
      00FF082EH   LINE      CODE     ---       #1702
      00FF0839H   LINE      CODE     ---       #1703
      00FF084DH   LINE      CODE     ---       #1705
      00FF0855H   LINE      CODE     ---       #1706
      00FF085DH   LINE      CODE     ---       #1707
      00FF0865H   LINE      CODE     ---       #1708
      00FF0868H   LINE      CODE     ---       #1709
L251 LINKER/LOCATER V4.55a                                                            08/25/2018  14:15:50  PAGE 40


      00FF086DH   LINE      CODE     ---       #1710
      00FF0875H   LINE      CODE     ---       #1711
      00FF087EH   LINE      CODE     ---       #1712
      00FF087EH   LINE      CODE     ---       #1714
      00FF0882H   LINE      CODE     ---       #1716
      00FF0888H   LINE      CODE     ---       #1717
      00FF088FH   LINE      CODE     ---       #1718
      00FF0893H   LINE      CODE     ---       #1719
      00FF0898H   LINE      CODE     ---       #1720
      00FF0898H   LINE      CODE     ---       #1721
      00FF089BH   LINE      CODE     ---       #1722
      ---         BLOCKEND  ---      ---       LVL=0

      00FF1D59H   BLOCK     CODE     ---       LVL=0
      00FF1D5BH   BLOCK     CODE     NEAR LAB  LVL=1
      R6          REGSYM    ---      BYTE      i
      R4          REGSYM    ---      BYTE      n
      R5          REGSYM    ---      BYTE      a
      R7          REGSYM    ---      BYTE      b
      R14         REGSYM    ---      BYTE      temp
      R15         REGSYM    ---      BYTE      num
      ---         BLOCKEND  ---      ---       LVL=1
      00FF1D59H   LINE      CODE     ---       #1730
      00FF1D5BH   LINE      CODE     ---       #1731
      00FF1D5BH   LINE      CODE     ---       #1733
      00FF1D5DH   LINE      CODE     ---       #1734
      00FF1D81H   LINE      CODE     ---       #1736
      00FF1D87H   LINE      CODE     ---       #1737
      00FF1D8DH   LINE      CODE     ---       #1738
      00FF1D90H   LINE      CODE     ---       #1739
      00FF1D92H   LINE      CODE     ---       #1740
      00FF1D99H   LINE      CODE     ---       #1741
      00FF1DA0H   LINE      CODE     ---       #1743
      00FF1DA0H   LINE      CODE     ---       #1744
      00FF1DA7H   LINE      CODE     ---       #1745
      00FF1DAEH   LINE      CODE     ---       #1746
      00FF1DB8H   LINE      CODE     ---       #1747
      00FF1DBCH   LINE      CODE     ---       #1749
      00FF1DC8H   LINE      CODE     ---       #1750
      00FF1DCAH   LINE      CODE     ---       #1751
      00FF1DCEH   LINE      CODE     ---       #1753
      00FF1DDAH   LINE      CODE     ---       #1754
      00FF1DEAH   LINE      CODE     ---       #1755
      00FF1DECH   LINE      CODE     ---       #1756
      00FF1DF0H   LINE      CODE     ---       #1758
      00FF1DFEH   LINE      CODE     ---       #1759
      00FF1E16H   LINE      CODE     ---       #1760
      00FF1E2EH   LINE      CODE     ---       #1761
      00FF1E2EH   LINE      CODE     ---       #1762
      00FF1E30H   LINE      CODE     ---       #1764
      00FF1E35H   LINE      CODE     ---       #1766
      00FF1E41H   LINE      CODE     ---       #1767
      00FF1E49H   LINE      CODE     ---       #1768
      00FF1E4EH   LINE      CODE     ---       #1770
      00FF1E55H   LINE      CODE     ---       #1771
      00FF1E5CH   LINE      CODE     ---       #1772
      00FF1E63H   LINE      CODE     ---       #1773
      00FF1E6AH   LINE      CODE     ---       #1774
      00FF1E71H   LINE      CODE     ---       #1775
      00FF1E78H   LINE      CODE     ---       #1776
      00FF1E7AH   LINE      CODE     ---       #1777
      00FF1E82H   LINE      CODE     ---       #1778
      00FF1E87H   LINE      CODE     ---       #1780
      00FF1E8EH   LINE      CODE     ---       #1781
      00FF1E95H   LINE      CODE     ---       #1782
L251 LINKER/LOCATER V4.55a                                                            08/25/2018  14:15:50  PAGE 41


      00FF1E9CH   LINE      CODE     ---       #1783
      00FF1EA3H   LINE      CODE     ---       #1784
      00FF1EAAH   LINE      CODE     ---       #1785
      00FF1EB1H   LINE      CODE     ---       #1786
      00FF1EB3H   LINE      CODE     ---       #1787
      00FF1EBBH   LINE      CODE     ---       #1788
      00FF1ECAH   LINE      CODE     ---       #1789
      00FF1ED3H   LINE      CODE     ---       #1790
      00FF1ED6H   LINE      CODE     ---       #1791
      00FF1ED8H   LINE      CODE     ---       #1794
      00FF1EDEH   LINE      CODE     ---       #1796
      00FF1EE2H   LINE      CODE     ---       #1797
      00FF1EE7H   LINE      CODE     ---       #1798
      00FF1EE7H   LINE      CODE     ---       #1800
      ---         BLOCKEND  ---      ---       LVL=0

      00FF1EEAH   BLOCK     CODE     ---       LVL=0
      00FF1EEAH   LINE      CODE     ---       #1807
      00FF1EEAH   LINE      CODE     ---       #1809
      00FF1EEFH   LINE      CODE     ---       #1810
      00FF1EF5H   LINE      CODE     ---       #1811
      00FF1F10H   LINE      CODE     ---       #1812
      00FF1F1CH   LINE      CODE     ---       #1813
      00FF1F32H   LINE      CODE     ---       #1814
      00FF1F3BH   LINE      CODE     ---       #1815
      00FF1F43H   LINE      CODE     ---       #1817
      00FF1F4DH   LINE      CODE     ---       #1818
      00FF1F56H   LINE      CODE     ---       #1819
      00FF1F60H   LINE      CODE     ---       #1820
      00FF1F69H   LINE      CODE     ---       #1821
      00FF1F73H   LINE      CODE     ---       #1822
      00FF1F7CH   LINE      CODE     ---       #1823
      00FF1F86H   LINE      CODE     ---       #1824
      00FF1FA1H   LINE      CODE     ---       #1825
      00FF1FA7H   LINE      CODE     ---       #1826
      00FF1FADH   LINE      CODE     ---       #1828
      00FF1FB2H   LINE      CODE     ---       #1830
      00FF1FB9H   LINE      CODE     ---       #1832
      00FF1FC2H   LINE      CODE     ---       #1833
      00FF1FC8H   LINE      CODE     ---       #1834
      00FF1FCEH   LINE      CODE     ---       #1835
      00FF1FD4H   LINE      CODE     ---       #1836
      00FF1FDCH   LINE      CODE     ---       #1837
      00FF1FE5H   LINE      CODE     ---       #1838
      00FF1FEAH   LINE      CODE     ---       #1839
      00FF1FEEH   LINE      CODE     ---       #1840
      00FF1FF0H   LINE      CODE     ---       #1842
      00FF1FF3H   LINE      CODE     ---       #1843
      00FF1FFCH   LINE      CODE     ---       #1844
      00FF2003H   LINE      CODE     ---       #1845
      00FF2005H   LINE      CODE     ---       #1848
      00FF200EH   LINE      CODE     ---       #1850
      00FF2013H   LINE      CODE     ---       #1851
      00FF2019H   LINE      CODE     ---       #1852
      00FF201FH   LINE      CODE     ---       #1853
      00FF201FH   LINE      CODE     ---       #1856
      00FF2021H   LINE      CODE     ---       #1860
      00FF202AH   LINE      CODE     ---       #1862
      00FF202FH   LINE      CODE     ---       #1863
      00FF2035H   LINE      CODE     ---       #1864
      00FF203BH   LINE      CODE     ---       #1865
      00FF203BH   LINE      CODE     ---       #1868
      00FF203DH   LINE      CODE     ---       #1871
      00FF2046H   LINE      CODE     ---       #1873
      00FF204BH   LINE      CODE     ---       #1874
L251 LINKER/LOCATER V4.55a                                                            08/25/2018  14:15:50  PAGE 42


      00FF2051H   LINE      CODE     ---       #1875
      00FF2057H   LINE      CODE     ---       #1876
      00FF2057H   LINE      CODE     ---       #1879
      00FF2057H   LINE      CODE     ---       #1881
      00FF205CH   LINE      CODE     ---       #1882
      00FF2061H   LINE      CODE     ---       #1883
      ---         BLOCKEND  ---      ---       LVL=0

      00FF34F6H   BLOCK     CODE     ---       LVL=0
      00FF34F6H   LINE      CODE     ---       #1890
      00FF34F6H   LINE      CODE     ---       #1892
      00FF34FBH   LINE      CODE     ---       #1893
      00FF3501H   LINE      CODE     ---       #1894
      00FF350AH   LINE      CODE     ---       #1896
      00FF3513H   LINE      CODE     ---       #1898
      00FF351CH   LINE      CODE     ---       #1900
      00FF3523H   LINE      CODE     ---       #1901
      00FF3528H   LINE      CODE     ---       #1902
      00FF3528H   LINE      CODE     ---       #1905
      00FF3528H   LINE      CODE     ---       #1906
      00FF352DH   LINE      CODE     ---       #1907
      00FF3532H   LINE      CODE     ---       #1908
      ---         BLOCKEND  ---      ---       LVL=0

      00FF1A02H   BLOCK     CODE     ---       LVL=0
      00FF1A04H   BLOCK     CODE     NEAR LAB  LVL=1
      R15         REGSYM    ---      BYTE      send_num
      ---         BLOCKEND  ---      ---       LVL=1
      00FF1A02H   LINE      CODE     ---       #1915
      00FF1A04H   LINE      CODE     ---       #1916
      00FF1A04H   LINE      CODE     ---       #1917
      00FF1A06H   LINE      CODE     ---       #1919
      00FF1A0EH   LINE      CODE     ---       #1921
      00FF1A0FH   LINE      CODE     ---       #1922
      00FF1A12H   LINE      CODE     ---       #1923
      00FF1A17H   LINE      CODE     ---       #1925
      00FF1A22H   LINE      CODE     ---       #1926
      00FF1A29H   LINE      CODE     ---       #1927
      00FF1A2BH   LINE      CODE     ---       #1928
      00FF1A2EH   LINE      CODE     ---       #1929
      00FF1A33H   LINE      CODE     ---       #1931
      00FF1A43H   LINE      CODE     ---       #1932
      00FF1A4CH   LINE      CODE     ---       #1933
      00FF1A52H   LINE      CODE     ---       #1934
      00FF1A58H   LINE      CODE     ---       #1935
      00FF1A5FH   LINE      CODE     ---       #1936
      00FF1A61H   LINE      CODE     ---       #1937
      00FF1A64H   LINE      CODE     ---       #1938
      00FF1A6DH   LINE      CODE     ---       #1940
      00FF1A81H   LINE      CODE     ---       #1941
      00FF1A8AH   LINE      CODE     ---       #1942
      00FF1A90H   LINE      CODE     ---       #1943
      00FF1A96H   LINE      CODE     ---       #1944
      00FF1A9FH   LINE      CODE     ---       #1945
      00FF1AA5H   LINE      CODE     ---       #1946
      00FF1AABH   LINE      CODE     ---       #1947
      00FF1AB2H   LINE      CODE     ---       #1948
      00FF1AB4H   LINE      CODE     ---       #1949
      00FF1AB7H   LINE      CODE     ---       #1950
      00FF1AC0H   LINE      CODE     ---       #1952
      00FF1AD4H   LINE      CODE     ---       #1953
      00FF1ADDH   LINE      CODE     ---       #1954
      00FF1AE3H   LINE      CODE     ---       #1955
      00FF1AE9H   LINE      CODE     ---       #1956
      00FF1AF2H   LINE      CODE     ---       #1957
L251 LINKER/LOCATER V4.55a                                                            08/25/2018  14:15:50  PAGE 43


      00FF1AF8H   LINE      CODE     ---       #1958
      00FF1AFEH   LINE      CODE     ---       #1959
      00FF1B07H   LINE      CODE     ---       #1960
      00FF1B0DH   LINE      CODE     ---       #1961
      00FF1B13H   LINE      CODE     ---       #1962
      00FF1B1AH   LINE      CODE     ---       #1963
      00FF1B1CH   LINE      CODE     ---       #1964
      00FF1B1EH   LINE      CODE     ---       #1965
      00FF1B27H   LINE      CODE     ---       #1967
      00FF1B3BH   LINE      CODE     ---       #1968
      00FF1B44H   LINE      CODE     ---       #1969
      00FF1B4AH   LINE      CODE     ---       #1970
      00FF1B50H   LINE      CODE     ---       #1971
      00FF1B59H   LINE      CODE     ---       #1972
      00FF1B5FH   LINE      CODE     ---       #1973
      00FF1B65H   LINE      CODE     ---       #1974
      00FF1B6EH   LINE      CODE     ---       #1975
      00FF1B74H   LINE      CODE     ---       #1976
      00FF1B7AH   LINE      CODE     ---       #1977
      00FF1B83H   LINE      CODE     ---       #1978
      00FF1B89H   LINE      CODE     ---       #1979
      00FF1B8FH   LINE      CODE     ---       #1980
      00FF1B96H   LINE      CODE     ---       #1981
      00FF1B9CH   LINE      CODE     ---       #1982
      00FF1B9CH   LINE      CODE     ---       #1983
      00FF1BA4H   LINE      CODE     ---       #1984
      00FF1BADH   LINE      CODE     ---       #1985
      ---         BLOCKEND  ---      ---       LVL=0

      00FF2062H   BLOCK     CODE     ---       LVL=0
      00FF2062H   LINE      CODE     ---       #1992
      00FF2062H   LINE      CODE     ---       #1994
      00FF2067H   LINE      CODE     ---       #1995
      00FF206DH   LINE      CODE     ---       #1996
      00FF2079H   LINE      CODE     ---       #1998
      00FF2081H   LINE      CODE     ---       #2000
      00FF208BH   LINE      CODE     ---       #2002
      00FF2095H   LINE      CODE     ---       #2004
      00FF209FH   LINE      CODE     ---       #2006
      00FF20A9H   LINE      CODE     ---       #2008
      00FF20AFH   LINE      CODE     ---       #2009
      00FF20B5H   LINE      CODE     ---       #2011
      00FF20BAH   LINE      CODE     ---       #2013
      00FF20C1H   LINE      CODE     ---       #2016
      00FF20CAH   LINE      CODE     ---       #2017
      00FF20D0H   LINE      CODE     ---       #2018
      00FF20D6H   LINE      CODE     ---       #2020
      00FF20D9H   LINE      CODE     ---       #2021
      00FF20DFH   LINE      CODE     ---       #2023
      00FF20E4H   LINE      CODE     ---       #2024
      00FF20E8H   LINE      CODE     ---       #2025
      00FF20EAH   LINE      CODE     ---       #2027
      00FF20EDH   LINE      CODE     ---       #2028
      00FF20F6H   LINE      CODE     ---       #2029
      00FF20FDH   LINE      CODE     ---       #2032
      00FF2102H   LINE      CODE     ---       #2034
      00FF2109H   LINE      CODE     ---       #2037
      00FF2112H   LINE      CODE     ---       #2038
      00FF2118H   LINE      CODE     ---       #2039
      00FF211EH   LINE      CODE     ---       #2041
      00FF2121H   LINE      CODE     ---       #2042
      00FF2126H   LINE      CODE     ---       #2043
      00FF212AH   LINE      CODE     ---       #2044
      00FF212CH   LINE      CODE     ---       #2046
      00FF212FH   LINE      CODE     ---       #2047
L251 LINKER/LOCATER V4.55a                                                            08/25/2018  14:15:50  PAGE 44


      00FF2138H   LINE      CODE     ---       #2048
      00FF2138H   LINE      CODE     ---       #2049
      00FF213FH   LINE      CODE     ---       #2050
      00FF2141H   LINE      CODE     ---       #2053
      00FF214AH   LINE      CODE     ---       #2055
      00FF214FH   LINE      CODE     ---       #2056
      00FF2155H   LINE      CODE     ---       #2057
      00FF215BH   LINE      CODE     ---       #2058
      00FF215BH   LINE      CODE     ---       #2061
      00FF215DH   LINE      CODE     ---       #2065
      00FF2166H   LINE      CODE     ---       #2067
      00FF216BH   LINE      CODE     ---       #2068
      00FF2171H   LINE      CODE     ---       #2069
      00FF2177H   LINE      CODE     ---       #2070
      00FF2177H   LINE      CODE     ---       #2072
      00FF2179H   LINE      CODE     ---       #2075
      00FF2182H   LINE      CODE     ---       #2077
      00FF2187H   LINE      CODE     ---       #2078
      00FF218DH   LINE      CODE     ---       #2079
      00FF2193H   LINE      CODE     ---       #2080
      00FF2193H   LINE      CODE     ---       #2082
      00FF2193H   LINE      CODE     ---       #2084
      00FF2198H   LINE      CODE     ---       #2085
      00FF219DH   LINE      CODE     ---       #2086
      ---         BLOCKEND  ---      ---       LVL=0

      00FF320CH   BLOCK     CODE     ---       LVL=0
      R10         REGSYM    ---      BYTE      i
      00FF320CH   LINE      CODE     ---       #2093
      00FF320CH   LINE      CODE     ---       #2094
      00FF320CH   LINE      CODE     ---       #2096
      00FF3215H   LINE      CODE     ---       #2097
      00FF3218H   LINE      CODE     ---       #2098
      00FF321EH   LINE      CODE     ---       #2099
      00FF3224H   LINE      CODE     ---       #2100
      00FF322BH   LINE      CODE     ---       #2102
      00FF3240H   LINE      CODE     ---       #2103
      00FF3243H   LINE      CODE     ---       #2104
      00FF3254H   LINE      CODE     ---       #2105
      00FF325DH   LINE      CODE     ---       #2106
      00FF325DH   LINE      CODE     ---       #2107
      00FF3262H   LINE      CODE     ---       #2108
      ---         BLOCKEND  ---      ---       LVL=0

      00FF22D9H   BLOCK     CODE     ---       LVL=0
      00FF22D9H   LINE      CODE     ---       #2113
      00FF22DDH   LINE      CODE     ---       #2116
      00FF22E5H   LINE      CODE     ---       #2118
      00FF22E8H   LINE      CODE     ---       #2119
      00FF22F4H   LINE      CODE     ---       #2120
      00FF2300H   LINE      CODE     ---       #2122
      00FF2307H   LINE      CODE     ---       #2123
      00FF231EH   LINE      CODE     ---       #2124
      00FF2324H   LINE      CODE     ---       #2125
      00FF2331H   LINE      CODE     ---       #2126
      00FF2331H   LINE      CODE     ---       #2127
      00FF2331H   LINE      CODE     ---       #2129
      00FF2339H   LINE      CODE     ---       #2131
      00FF233CH   LINE      CODE     ---       #2132
      00FF2346H   LINE      CODE     ---       #2133
      00FF2360H   LINE      CODE     ---       #2134
      00FF2366H   LINE      CODE     ---       #2135
      00FF2366H   LINE      CODE     ---       #2140
      00FF236EH   LINE      CODE     ---       #2142
      00FF2371H   LINE      CODE     ---       #2143
L251 LINKER/LOCATER V4.55a                                                            08/25/2018  14:15:50  PAGE 45


      00FF237EH   LINE      CODE     ---       #2144
      00FF2383H   LINE      CODE     ---       #2145
      00FF2394H   LINE      CODE     ---       #2146
      00FF2394H   LINE      CODE     ---       #2148
      00FF239CH   LINE      CODE     ---       #2150
      00FF239FH   LINE      CODE     ---       #2151
      00FF23A9H   LINE      CODE     ---       #2152
      00FF23C3H   LINE      CODE     ---       #2153
      00FF23C9H   LINE      CODE     ---       #2154
      ---         BLOCKEND  ---      ---       LVL=0

      ---         MODULE    ---      ---       RTC
      00FF314AH   PUBLIC    CODE     ---       RTCInit
      00FF32C0H   PUBLIC    CODE     ---       RTCSet
      00FF2995H   PUBLIC    CODE     ---       INTERRUPT_RTC
      000003F7H   PUBLIC    EDATA    BYTE      CDMA_Wait
      000000D0H   SFRSYM    DATA     BYTE      PSW
      000000A6H   SFRSYM    DATA     BYTE      WDTRST
      000000C3H   SFRSYM    DATA     BYTE      TCON2
      000000C0H   SFRSYM    DATA     BYTE      AIF
      000000E8H   SFRSYM    DATA     BYTE      AIE
      000000A8H   SFRSYM    DATA     BYTE      IE0
      00000088H   SFRSYM    DATA     BYTE      TCON
      00000098H   SFRSYM    DATA     BYTE      SCON
      000000D8H   SFRSYM    DATA     BYTE      CCON

      00FF314AH   BLOCK     CODE     ---       LVL=0
      00FF314AH   LINE      CODE     ---       #9
      00FF314AH   LINE      CODE     ---       #11
      00FF3152H   LINE      CODE     ---       #13
      00FF315BH   LINE      CODE     ---       #15
      00FF3166H   LINE      CODE     ---       #16
      00FF3171H   LINE      CODE     ---       #17
      00FF317CH   LINE      CODE     ---       #18
      00FF3187H   LINE      CODE     ---       #19
      00FF3192H   LINE      CODE     ---       #20
      00FF319DH   LINE      CODE     ---       #21
      00FF31A8H   LINE      CODE     ---       #22
      00FF31ABH   LINE      CODE     ---       #23
      ---         BLOCKEND  ---      ---       LVL=0

      00FF32C0H   BLOCK     CODE     ---       LVL=0
      00FF32C0H   LINE      CODE     ---       #27
      00FF32C0H   LINE      CODE     ---       #29
      00FF32C3H   LINE      CODE     ---       #30
      00FF32CEH   LINE      CODE     ---       #31
      00FF32D9H   LINE      CODE     ---       #32
      00FF32E4H   LINE      CODE     ---       #33
      00FF32EFH   LINE      CODE     ---       #34
      00FF32FAH   LINE      CODE     ---       #35
      00FF3305H   LINE      CODE     ---       #36
      00FF3310H   LINE      CODE     ---       #37
      00FF3313H   LINE      CODE     ---       #38
      ---         BLOCKEND  ---      ---       LVL=0

      00FF2995H   BLOCK     CODE     ---       LVL=0
      00FF2995H   LINE      CODE     ---       #42
      00FF299BH   LINE      CODE     ---       #44
      00FF29A1H   LINE      CODE     ---       #45
      00FF29A4H   LINE      CODE     ---       #46
      00FF29ADH   LINE      CODE     ---       #47
      00FF29BEH   LINE      CODE     ---       #48
      00FF29C7H   LINE      CODE     ---       #49
      00FF29D0H   LINE      CODE     ---       #50
      00FF29D9H   LINE      CODE     ---       #51
L251 LINKER/LOCATER V4.55a                                                            08/25/2018  14:15:50  PAGE 46


      00FF29FEH   LINE      CODE     ---       #53
      00FF2A09H   LINE      CODE     ---       #54
      00FF2A14H   LINE      CODE     ---       #55
      00FF2A1FH   LINE      CODE     ---       #56
      00FF2A2AH   LINE      CODE     ---       #57
      00FF2A35H   LINE      CODE     ---       #58
      00FF2A40H   LINE      CODE     ---       #59
      ---         BLOCKEND  ---      ---       LVL=0

      ---         MODULE    ---      ---       HT1621
      00FF3267H   PUBLIC    CODE     ---       Port_Init
      00FF2B96H   PUBLIC    CODE     ---       INTERRUPT_PORT
      000000D0H   SFRSYM    DATA     BYTE      PSW
      000000C3H   SFRSYM    DATA     BYTE      TCON2
      000000C0H   SFRSYM    DATA     BYTE      AIF
      000000E8H   SFRSYM    DATA     BYTE      AIE
      000000F6H   SFRSYM    DATA     BYTE      P8_DIR
      000000F5H   SFRSYM    DATA     BYTE      P7_DIR
      000000F4H   SFRSYM    DATA     BYTE      P6_DIR
      000000F3H   SFRSYM    DATA     BYTE      P5_DIR
      000000F2H   SFRSYM    DATA     BYTE      P4_DIR
      000000ADH   SFRSYM    DATA     BYTE      P1_DIR
      000000ACH   SFRSYM    DATA     BYTE      P0_DIR
      000000A8H   SFRSYM    DATA     BYTE      IE0
      00000088H   SFRSYM    DATA     BYTE      TCON
      00000098H   SFRSYM    DATA     BYTE      SCON
      000000D8H   SFRSYM    DATA     BYTE      CCON
      000000E6H   SFRSYM    DATA     BYTE      P8
      000000E5H   SFRSYM    DATA     BYTE      P7
      000000E4H   SFRSYM    DATA     BYTE      P6
      000000E3H   SFRSYM    DATA     BYTE      P5
      000000E2H   SFRSYM    DATA     BYTE      P4
      00000090H   SFRSYM    DATA     BYTE      P1
      00000080H   SFRSYM    DATA     BYTE      P0

      00FF3267H   BLOCK     CODE     ---       LVL=0
      00FF3267H   LINE      CODE     ---       #13
      00FF3267H   LINE      CODE     ---       #16
      00FF326AH   LINE      CODE     ---       #17
      00FF326DH   LINE      CODE     ---       #18
      00FF3270H   LINE      CODE     ---       #19
      00FF3273H   LINE      CODE     ---       #21
      00FF3276H   LINE      CODE     ---       #22
      00FF3279H   LINE      CODE     ---       #23
      00FF327CH   LINE      CODE     ---       #25
      00FF327FH   LINE      CODE     ---       #26
      00FF3288H   LINE      CODE     ---       #27
      00FF328BH   LINE      CODE     ---       #28
      00FF3294H   LINE      CODE     ---       #30
      00FF3297H   LINE      CODE     ---       #31
      00FF329AH   LINE      CODE     ---       #33
      00FF329DH   LINE      CODE     ---       #34
      00FF329FH   LINE      CODE     ---       #35
      00FF32A1H   LINE      CODE     ---       #37
      00FF32A9H   LINE      CODE     ---       #38
      00FF32B0H   LINE      CODE     ---       #39
      00FF32BCH   LINE      CODE     ---       #43
      00FF32BFH   LINE      CODE     ---       #44
      ---         BLOCKEND  ---      ---       LVL=0

      00FF2B96H   BLOCK     CODE     ---       LVL=0
      00FF2B96H   LINE      CODE     ---       #48
      00FF2BACH   LINE      CODE     ---       #50
      00FF2BB6H   LINE      CODE     ---       #52
      00FF2BBBH   LINE      CODE     ---       #53
L251 LINKER/LOCATER V4.55a                                                            08/25/2018  14:15:50  PAGE 47


      00FF2BC4H   LINE      CODE     ---       #54
      00FF2BD2H   LINE      CODE     ---       #55
      00FF2BDBH   LINE      CODE     ---       #56
      00FF2BDBH   LINE      CODE     ---       #57
      00FF2BE1H   LINE      CODE     ---       #59
      00FF2BE4H   LINE      CODE     ---       #60
      00FF2BE4H   LINE      CODE     ---       #61
      00FF2BEEH   LINE      CODE     ---       #63
      00FF2BF4H   LINE      CODE     ---       #64
      00FF2BF4H   LINE      CODE     ---       #65
      00FF2BF4H   LINE      CODE     ---       #68
      00FF2BF4H   LINE      CODE     ---       #69
      00FF2BFEH   LINE      CODE     ---       #71
      00FF2C04H   LINE      CODE     ---       #72
      00FF2C04H   LINE      CODE     ---       #73
      00FF2C04H   LINE      CODE     ---       #76
      00FF2C04H   LINE      CODE     ---       #77
      00FF2C0CH   LINE      CODE     ---       #78
      00FF2C13H   LINE      CODE     ---       #79
      ---         BLOCKEND  ---      ---       LVL=0

      ---         MODULE    ---      ---       Calculate
      00FF35A2H   PUBLIC    CODE     ---       InitData
      00FF33F8H   PUBLIC    CODE     ---       calculate
      00FF1BB0H   PUBLIC    CODE     ---       FCtrol
      00FF23CEH   PUBLIC    CODE     ---       RNG_Time
      000000D0H   SFRSYM    DATA     BYTE      PSW
      000000C3H   SFRSYM    DATA     BYTE      TCON2
      000000C0H   SFRSYM    DATA     BYTE      AIF
      000000E8H   SFRSYM    DATA     BYTE      AIE
      000000ADH   SFRSYM    DATA     BYTE      P1_DIR
      000000A8H   SFRSYM    DATA     BYTE      IE0
      00000088H   SFRSYM    DATA     BYTE      TCON
      00000098H   SFRSYM    DATA     BYTE      SCON
      000000D8H   SFRSYM    DATA     BYTE      CCON
      00000090H   SFRSYM    DATA     BYTE      P1

      00FF35A2H   BLOCK     CODE     ---       LVL=0
      00FF35A2H   LINE      CODE     ---       #31
      00FF35A2H   LINE      CODE     ---       #33
      00FF35C8H   LINE      CODE     ---       #34
      00FF35CDH   LINE      CODE     ---       #35
      ---         BLOCKEND  ---      ---       LVL=0

      00FF1BB0H   BLOCK     CODE     ---       LVL=0
      R15         REGSYM    ---      BYTE      order
      00FF1BB0H   LINE      CODE     ---       #42
      00FF1BB4H   LINE      CODE     ---       #44
      00FF1BB7H   LINE      CODE     ---       #45
      00FF1BBEH   LINE      CODE     ---       #46
      00FF1BC1H   LINE      CODE     ---       #47
      00FF1BC7H   LINE      CODE     ---       #48
      00FF1BCBH   LINE      CODE     ---       #49
      00FF1BD9H   LINE      CODE     ---       #51
      00FF1BD9H   LINE      CODE     ---       #52
      00FF1BE9H   LINE      CODE     ---       #54
      00FF1BECH   LINE      CODE     ---       #56
      00FF1BF2H   LINE      CODE     ---       #57
      00FF1BF9H   LINE      CODE     ---       #58
      00FF1C02H   LINE      CODE     ---       #59
      00FF1C05H   LINE      CODE     ---       #62
      00FF1C08H   LINE      CODE     ---       #64
      00FF1C0EH   LINE      CODE     ---       #65
      00FF1C15H   LINE      CODE     ---       #66
      00FF1C26H   LINE      CODE     ---       #67
L251 LINKER/LOCATER V4.55a                                                            08/25/2018  14:15:50  PAGE 48


      00FF1C26H   LINE      CODE     ---       #68
      00FF1C2CH   LINE      CODE     ---       #69
      00FF1C3EH   LINE      CODE     ---       #70
      00FF1C44H   LINE      CODE     ---       #72
      00FF1C47H   LINE      CODE     ---       #73
      00FF1C47H   LINE      CODE     ---       #74
      00FF1C57H   LINE      CODE     ---       #76
      00FF1C5AH   LINE      CODE     ---       #78
      00FF1C60H   LINE      CODE     ---       #79
      00FF1C67H   LINE      CODE     ---       #80
      00FF1C70H   LINE      CODE     ---       #81
      00FF1C73H   LINE      CODE     ---       #84
      00FF1C76H   LINE      CODE     ---       #86
      00FF1C7CH   LINE      CODE     ---       #87
      00FF1C83H   LINE      CODE     ---       #88
      00FF1C94H   LINE      CODE     ---       #89
      00FF1C94H   LINE      CODE     ---       #90
      00FF1C9AH   LINE      CODE     ---       #91
      00FF1CACH   LINE      CODE     ---       #92
      00FF1CB6H   LINE      CODE     ---       #93
      00FF1CB6H   LINE      CODE     ---       #94
      00FF1CB6H   LINE      CODE     ---       #95
      00FF1CB9H   LINE      CODE     ---       #96
      00FF1CC3H   LINE      CODE     ---       #97
      00FF1CCDH   LINE      CODE     ---       #98
      00FF1CD7H   LINE      CODE     ---       #99
      00FF1CDBH   LINE      CODE     ---       #100
      00FF1CF7H   LINE      CODE     ---       #101
      00FF1CFCH   LINE      CODE     ---       #102
      00FF1D1DH   LINE      CODE     ---       #105
      00FF1D29H   LINE      CODE     ---       #106
      00FF1D3EH   LINE      CODE     ---       #107
      00FF1D56H   LINE      CODE     ---       #109
      ---         BLOCKEND  ---      ---       LVL=0

      00FF33F8H   BLOCK     CODE     ---       LVL=0
      00FF33F8H   LINE      CODE     ---       #116
      00FF33F8H   LINE      CODE     ---       #119
      00FF33FFH   LINE      CODE     ---       #121
      00FF3404H   LINE      CODE     ---       #122
      00FF340EH   LINE      CODE     ---       #123
      00FF3414H   LINE      CODE     ---       #124
      00FF3426H   LINE      CODE     ---       #125
      00FF3432H   LINE      CODE     ---       #126
      00FF3436H   LINE      CODE     ---       #127
      00FF3439H   LINE      CODE     ---       #128
      ---         BLOCKEND  ---      ---       LVL=0

      00FF23CEH   BLOCK     CODE     ---       LVL=0
      R11         REGSYM    ---      BYTE      tmpReg
      R6          REGSYM    ---      BYTE      rngdata
      R11         REGSYM    ---      BYTE      time_temp
      R10         REGSYM    ---      BYTE      time_hour
      R9          REGSYM    ---      BYTE      time_min
      00FF23CEH   LINE      CODE     ---       #137
      00FF23CEH   LINE      CODE     ---       #138
      00FF23CEH   LINE      CODE     ---       #142
      00FF23F2H   LINE      CODE     ---       #143
      00FF240EH   LINE      CODE     ---       #145
      00FF2415H   LINE      CODE     ---       #146
      00FF241AH   LINE      CODE     ---       #148
      00FF2423H   LINE      CODE     ---       #151
      00FF2426H   LINE      CODE     ---       #153
      00FF242BH   LINE      CODE     ---       #155
      00FF242BH   LINE      CODE     ---       #157
L251 LINKER/LOCATER V4.55a                                                            08/25/2018  14:15:50  PAGE 49


      00FF2435H   LINE      CODE     ---       #158
      00FF243CH   LINE      CODE     ---       #166
      00FF2440H   LINE      CODE     ---       #167
      00FF244EH   LINE      CODE     ---       #168
      00FF2454H   LINE      CODE     ---       #169
      00FF245CH   LINE      CODE     ---       #170
      00FF246BH   LINE      CODE     ---       #171
      00FF247BH   LINE      CODE     ---       #172
      00FF249FH   LINE      CODE     ---       #173
      00FF24BFH   LINE      CODE     ---       #175
      ---         BLOCKEND  ---      ---       LVL=0

      ---         MODULE    ---      ---       LCD
      00FF2CB8H   PUBLIC    CODE     ---       ShowClose
      00FF33B1H   PUBLIC    CODE     ---       LCD_Clear
      00FF1282H   PUBLIC    CODE     ---       Show
      00FF24C0H   PUBLIC    CODE     ---       Lcd_DisTag
      00FF2DB3H   PUBLIC    CODE     ---       ShowOpen
      00FF28DEH   PUBLIC    CODE     ---       Lcd_DisNum
      00FF34B8H   PUBLIC    CODE     ---       LCD_Init
      00FF3985H   PUBLIC    HCONST   ---       LCD_Tab
      000000D0H   SFRSYM    DATA     BYTE      PSW
      000000C3H   SFRSYM    DATA     BYTE      TCON2
      000000C0H   SFRSYM    DATA     BYTE      AIF
      000000E8H   SFRSYM    DATA     BYTE      AIE
      000000F2H   SFRSYM    DATA     BYTE      P4_DIR
      000000AFH   SFRSYM    DATA     BYTE      P3_DIR
      000000AEH   SFRSYM    DATA     BYTE      P2_DIR
      000000A8H   SFRSYM    DATA     BYTE      IE0
      00000088H   SFRSYM    DATA     BYTE      TCON
      00000098H   SFRSYM    DATA     BYTE      SCON
      000000D8H   SFRSYM    DATA     BYTE      CCON

      00FF2DB3H   BLOCK     CODE     ---       LVL=0
      R11         REGSYM    ---      BYTE      time
      00FF2DB3H   LINE      CODE     ---       #60
      00FF2DB3H   LINE      CODE     ---       #62
      00FF2DC5H   LINE      CODE     ---       #63
      00FF2DD7H   LINE      CODE     ---       #64
      00FF2DE9H   LINE      CODE     ---       #65
      00FF2DFBH   LINE      CODE     ---       #66
      00FF2E0DH   LINE      CODE     ---       #67
      00FF2E14H   LINE      CODE     ---       #68
      00FF2E2AH   LINE      CODE     ---       #69
      ---         BLOCKEND  ---      ---       LVL=0

      00FF2CB8H   BLOCK     CODE     ---       LVL=0
      R11         REGSYM    ---      BYTE      time
      00FF2CB8H   LINE      CODE     ---       #76
      00FF2CB8H   LINE      CODE     ---       #78
      00FF2CCAH   LINE      CODE     ---       #79
      00FF2CDCH   LINE      CODE     ---       #80
      00FF2CEEH   LINE      CODE     ---       #81
      00FF2D00H   LINE      CODE     ---       #82
      00FF2D12H   LINE      CODE     ---       #83
      00FF2D24H   LINE      CODE     ---       #84
      00FF2D3AH   LINE      CODE     ---       #85
      ---         BLOCKEND  ---      ---       LVL=0

      00FF33B1H   BLOCK     CODE     ---       LVL=0
      R11         REGSYM    ---      BYTE      j
      00FF33B1H   LINE      CODE     ---       #92
      00FF33B1H   LINE      CODE     ---       #95
      00FF33F7H   LINE      CODE     ---       #96
      ---         BLOCKEND  ---      ---       LVL=0
L251 LINKER/LOCATER V4.55a                                                            08/25/2018  14:15:50  PAGE 50



      00FF28DEH   BLOCK     CODE     ---       LVL=0
      R11         REGSYM    ---      BYTE      pos
      R7          REGSYM    ---      BYTE      num
      00FF28DEH   LINE      CODE     ---       #103
      00FF28DEH   LINE      CODE     ---       #105
      00FF28FAH   LINE      CODE     ---       #107
      00FF28FAH   LINE      CODE     ---       #108
      00FF290DH   LINE      CODE     ---       #109
      00FF2910H   LINE      CODE     ---       #110
      00FF2910H   LINE      CODE     ---       #111
      00FF2923H   LINE      CODE     ---       #112
      00FF2925H   LINE      CODE     ---       #113
      00FF2925H   LINE      CODE     ---       #114
      00FF2938H   LINE      CODE     ---       #115
      00FF293AH   LINE      CODE     ---       #116
      00FF293AH   LINE      CODE     ---       #117
      00FF294DH   LINE      CODE     ---       #118
      00FF294FH   LINE      CODE     ---       #119
      00FF294FH   LINE      CODE     ---       #120
      00FF2962H   LINE      CODE     ---       #121
      00FF2964H   LINE      CODE     ---       #122
      00FF2964H   LINE      CODE     ---       #123
      00FF2977H   LINE      CODE     ---       #124
      00FF2979H   LINE      CODE     ---       #125
      00FF2979H   LINE      CODE     ---       #126
      00FF2994H   LINE      CODE     ---       #127
      00FF2994H   LINE      CODE     ---       #128
      00FF2994H   LINE      CODE     ---       #129
      ---         BLOCKEND  ---      ---       LVL=0

      00FF24C0H   BLOCK     CODE     ---       LVL=0
      R11         REGSYM    ---      BYTE      pos
      00FF24C0H   LINE      CODE     ---       #136
      00FF24C0H   LINE      CODE     ---       #138
      00FF252AH   LINE      CODE     ---       #140
      00FF252AH   LINE      CODE     ---       #141
      00FF252EH   LINE      CODE     ---       #142
      00FF2530H   LINE      CODE     ---       #143
      00FF2530H   LINE      CODE     ---       #144
      00FF2534H   LINE      CODE     ---       #145
      00FF2536H   LINE      CODE     ---       #146
      00FF2536H   LINE      CODE     ---       #147
      00FF253AH   LINE      CODE     ---       #148
      00FF253CH   LINE      CODE     ---       #149
      00FF253CH   LINE      CODE     ---       #150
      00FF2540H   LINE      CODE     ---       #151
      00FF2542H   LINE      CODE     ---       #152
      00FF2542H   LINE      CODE     ---       #153
      00FF2546H   LINE      CODE     ---       #154
      00FF2548H   LINE      CODE     ---       #155
      00FF2548H   LINE      CODE     ---       #156
      00FF254AH   LINE      CODE     ---       #157
      00FF254CH   LINE      CODE     ---       #158
      00FF254CH   LINE      CODE     ---       #159
      00FF254EH   LINE      CODE     ---       #160
      00FF2550H   LINE      CODE     ---       #161
      00FF2550H   LINE      CODE     ---       #162
      00FF2556H   LINE      CODE     ---       #163
      00FF2558H   LINE      CODE     ---       #164
      00FF2558H   LINE      CODE     ---       #165
      00FF2561H   LINE      CODE     ---       #166
      00FF2563H   LINE      CODE     ---       #167
      00FF2563H   LINE      CODE     ---       #168
      00FF2569H   LINE      CODE     ---       #169
L251 LINKER/LOCATER V4.55a                                                            08/25/2018  14:15:50  PAGE 51


      00FF256BH   LINE      CODE     ---       #170
      00FF256BH   LINE      CODE     ---       #171
      00FF2571H   LINE      CODE     ---       #172
      00FF2573H   LINE      CODE     ---       #173
      00FF2573H   LINE      CODE     ---       #174
      00FF257CH   LINE      CODE     ---       #175
      00FF257EH   LINE      CODE     ---       #176
      00FF257EH   LINE      CODE     ---       #177
      00FF2587H   LINE      CODE     ---       #178
      00FF2589H   LINE      CODE     ---       #179
      00FF2589H   LINE      CODE     ---       #180
      00FF258FH   LINE      CODE     ---       #181
      00FF2591H   LINE      CODE     ---       #182
      00FF2591H   LINE      CODE     ---       #183
      00FF2597H   LINE      CODE     ---       #184
      00FF2599H   LINE      CODE     ---       #185
      00FF2599H   LINE      CODE     ---       #186
      00FF259FH   LINE      CODE     ---       #187
      00FF25A1H   LINE      CODE     ---       #188
      00FF25A1H   LINE      CODE     ---       #189
      00FF25AAH   LINE      CODE     ---       #190
      00FF25AAH   LINE      CODE     ---       #191
      00FF25AAH   LINE      CODE     ---       #192
      ---         BLOCKEND  ---      ---       LVL=0

      00FF1282H   BLOCK     CODE     ---       LVL=0
      00FF1284H   BLOCK     CODE     NEAR LAB  LVL=1
      R15         REGSYM    ---      BYTE      i
      R14         REGSYM    ---      BYTE      j
      R13         REGSYM    ---      BYTE      k
      R12         REGSYM    ---      BYTE      h
      DR28        REGSYM    ---      DWORD     mid
      ---         BLOCKEND  ---      ---       LVL=1
      00FF1282H   LINE      CODE     ---       #199
      00FF1284H   LINE      CODE     ---       #200
      00FF1284H   LINE      CODE     ---       #201
      00FF1288H   LINE      CODE     ---       #202
      00FF128AH   LINE      CODE     ---       #203
      00FF128CH   LINE      CODE     ---       #205
      00FF1290H   LINE      CODE     ---       #207
      00FF12B3H   LINE      CODE     ---       #209
      00FF12B3H   LINE      CODE     ---       #210
      00FF12B7H   LINE      CODE     ---       #211
      00FF12BEH   LINE      CODE     ---       #212
      00FF12C3H   LINE      CODE     ---       #213
      00FF12C8H   LINE      CODE     ---       #214
      00FF12CDH   LINE      CODE     ---       #215
      00FF12D0H   LINE      CODE     ---       #216
      00FF12D9H   LINE      CODE     ---       #217
      00FF12DCH   LINE      CODE     ---       #218
      00FF12DCH   LINE      CODE     ---       #219
      00FF12E1H   LINE      CODE     ---       #220
      00FF12EFH   LINE      CODE     ---       #221
      00FF12F4H   LINE      CODE     ---       #222
      00FF12F9H   LINE      CODE     ---       #223
      00FF1335H   LINE      CODE     ---       #224
      00FF1338H   LINE      CODE     ---       #225
      00FF133AH   LINE      CODE     ---       #226
      00FF133DH   LINE      CODE     ---       #227
      00FF133DH   LINE      CODE     ---       #228
      00FF133FH   LINE      CODE     ---       #230
      00FF1367H   LINE      CODE     ---       #231
      00FF136EH   LINE      CODE     ---       #232
      00FF1377H   LINE      CODE     ---       #233
      00FF137AH   LINE      CODE     ---       #234
L251 LINKER/LOCATER V4.55a                                                            08/25/2018  14:15:50  PAGE 52


      00FF137AH   LINE      CODE     ---       #235
      00FF1386H   LINE      CODE     ---       #236
      00FF138BH   LINE      CODE     ---       #237
      00FF139DH   LINE      CODE     ---       #238
      00FF13A0H   LINE      CODE     ---       #239
      00FF13A9H   LINE      CODE     ---       #240
      00FF13ACH   LINE      CODE     ---       #241
      00FF13ACH   LINE      CODE     ---       #242
      00FF13BEH   LINE      CODE     ---       #243
      00FF13D0H   LINE      CODE     ---       #244
      00FF13D5H   LINE      CODE     ---       #245
      00FF13E8H   LINE      CODE     ---       #246
      00FF13FFH   LINE      CODE     ---       #247
      00FF1409H   LINE      CODE     ---       #248
      00FF140CH   LINE      CODE     ---       #249
      00FF141AH   LINE      CODE     ---       #250
      00FF141AH   LINE      CODE     ---       #251
      00FF141AH   LINE      CODE     ---       #253
      00FF1453H   LINE      CODE     ---       #255
      00FF1472H   LINE      CODE     ---       #256
      00FF147BH   LINE      CODE     ---       #257
      00FF14A7H   LINE      CODE     ---       #258
      00FF14A9H   LINE      CODE     ---       #260
      00FF14ACH   LINE      CODE     ---       #262
      00FF14CBH   LINE      CODE     ---       #263
      00FF14D4H   LINE      CODE     ---       #264
      00FF1500H   LINE      CODE     ---       #265
      00FF1502H   LINE      CODE     ---       #267
      00FF1521H   LINE      CODE     ---       #268
      00FF152AH   LINE      CODE     ---       #269
      00FF1556H   LINE      CODE     ---       #270
      00FF1558H   LINE      CODE     ---       #271
      00FF1560H   LINE      CODE     ---       #272
      ---         BLOCKEND  ---      ---       LVL=0

      00FF34B8H   BLOCK     CODE     ---       LVL=0
      00FF34B8H   LINE      CODE     ---       #279
      00FF34B8H   LINE      CODE     ---       #281
      00FF34BCH   LINE      CODE     ---       #283
      00FF34BFH   LINE      CODE     ---       #284
      00FF34C2H   LINE      CODE     ---       #285
      00FF34C5H   LINE      CODE     ---       #287
      00FF34CEH   LINE      CODE     ---       #288
      00FF34D7H   LINE      CODE     ---       #289
      00FF34E3H   LINE      CODE     ---       #291
      00FF34ECH   LINE      CODE     ---       #292
      00FF34F5H   LINE      CODE     ---       #293
      ---         BLOCKEND  ---      ---       LVL=0

      ---         MODULE    ---      ---       ?C?INITEDATA
      00FF344DH   PUBLIC    CODE     ---       ?C?INITEDATA

      ---         MODULE    ---      ---       ?C?SIDIV
      00FF2C2AH   PUBLIC    CODE     ---       ?C?SIDIV

      ---         MODULE    ---      ---       ?C?LIMUL
      00FF2C5CH   PUBLIC    CODE     ---       ?C?LIMUL

      ---         MODULE    ---      ---       ?C?ULDIV
      00FF2C67H   PUBLIC    CODE     NEAR LAB  ?C?ULDIV
      00FF2C65H   PUBLIC    CODE     NEAR LAB  ?C?ULIDIV

      ---         MODULE    ---      ---       STRCPY?_
      00FF360BH   PUBLIC    CODE     NEAR LAB  STRCPY?_

L251 LINKER/LOCATER V4.55a                                                            08/25/2018  14:15:50  PAGE 53


      ---         MODULE    ---      ---       ?C?INITEDATA_END
      00FF3983H   PUBLIC    HCONST   WORD      ?C?INITEDATA_END

Program Size: data=8.0 edata+hdata=1264 xdata=0 const=836 code=13871
L251 RUN COMPLETE.  0 WARNING(S),  0 ERROR(S)
